
FreeRTOS_STM32F7.elf:     file format elf32-littlearm

Sections:
Idx Name          Size      VMA       LMA       File off  Algn
  0 .isr_vector   000001f8  08000000  08000000  00010000  2**0
                  CONTENTS, ALLOC, LOAD, READONLY, DATA
  1 .text         00002b24  080001f8  080001f8  000101f8  2**2
                  CONTENTS, ALLOC, LOAD, READONLY, CODE
  2 .rodata       0000006c  08002d1c  08002d1c  00012d1c  2**2
                  CONTENTS, ALLOC, LOAD, READONLY, DATA
  3 .init_array   00000004  08002d88  08002d88  00012d88  2**2
                  CONTENTS, ALLOC, LOAD, DATA
  4 .fini_array   00000004  08002d8c  08002d8c  00012d8c  2**2
                  CONTENTS, ALLOC, LOAD, DATA
  5 .data         000001d0  20020000  08002d90  00020000  2**2
                  CONTENTS, ALLOC, LOAD, DATA
  6 .dtcmram      00000000  20000000  20000000  000201d0  2**0
                  CONTENTS
  7 .sram2        00000000  2007c000  2007c000  000201d0  2**0
                  CONTENTS
  8 .bss          00001858  200201d0  200201d0  000201d0  2**2
                  ALLOC
  9 ._user_heap_stack 00000400  20021a28  20021a28  000201d0  2**0
                  ALLOC
 10 .ARM.attributes 00000030  00000000  00000000  000201d0  2**0
                  CONTENTS, READONLY
 11 .debug_info   000132f3  00000000  00000000  00020200  2**0
                  CONTENTS, READONLY, DEBUGGING
 12 .debug_abbrev 0000267a  00000000  00000000  000334f3  2**0
                  CONTENTS, READONLY, DEBUGGING
 13 .debug_aranges 000009c8  00000000  00000000  00035b70  2**3
                  CONTENTS, READONLY, DEBUGGING
 14 .debug_ranges 000008c0  00000000  00000000  00036538  2**3
                  CONTENTS, READONLY, DEBUGGING
 15 .debug_line   0000514d  00000000  00000000  00036df8  2**0
                  CONTENTS, READONLY, DEBUGGING
 16 .debug_str    000035a1  00000000  00000000  0003bf45  2**0
                  CONTENTS, READONLY, DEBUGGING
 17 .comment      0000007c  00000000  00000000  0003f4e6  2**0
                  CONTENTS, READONLY
 18 .debug_frame  0000282c  00000000  00000000  0003f564  2**2
                  CONTENTS, READONLY, DEBUGGING
 19 .stabstr      0000003f  00000000  00000000  00041d90  2**0
                  CONTENTS, READONLY, DEBUGGING

Disassembly of section .text:

080001f8 <__do_global_dtors_aux>:
 80001f8:	b510      	push	{r4, lr}
 80001fa:	4c05      	ldr	r4, [pc, #20]	; (8000210 <__do_global_dtors_aux+0x18>)
 80001fc:	7823      	ldrb	r3, [r4, #0]
 80001fe:	b933      	cbnz	r3, 800020e <__do_global_dtors_aux+0x16>
 8000200:	4b04      	ldr	r3, [pc, #16]	; (8000214 <__do_global_dtors_aux+0x1c>)
 8000202:	b113      	cbz	r3, 800020a <__do_global_dtors_aux+0x12>
 8000204:	4804      	ldr	r0, [pc, #16]	; (8000218 <__do_global_dtors_aux+0x20>)
 8000206:	f3af 8000 	nop.w
 800020a:	2301      	movs	r3, #1
 800020c:	7023      	strb	r3, [r4, #0]
 800020e:	bd10      	pop	{r4, pc}
 8000210:	200201d0 	.word	0x200201d0
 8000214:	00000000 	.word	0x00000000
 8000218:	08002d04 	.word	0x08002d04

0800021c <frame_dummy>:
 800021c:	b508      	push	{r3, lr}
 800021e:	4b03      	ldr	r3, [pc, #12]	; (800022c <frame_dummy+0x10>)
 8000220:	b11b      	cbz	r3, 800022a <frame_dummy+0xe>
 8000222:	4903      	ldr	r1, [pc, #12]	; (8000230 <frame_dummy+0x14>)
 8000224:	4803      	ldr	r0, [pc, #12]	; (8000234 <frame_dummy+0x18>)
 8000226:	f3af 8000 	nop.w
 800022a:	bd08      	pop	{r3, pc}
 800022c:	00000000 	.word	0x00000000
 8000230:	200201d4 	.word	0x200201d4
 8000234:	08002d04 	.word	0x08002d04

08000238 <HAL_IncTick>:
 * @note This function is declared as __weak to be overwritten in case of other 
  *      implementations in user file.
  * @retval None
  */
__weak void HAL_IncTick(void)
{
 8000238:	b480      	push	{r7}
 800023a:	af00      	add	r7, sp, #0
  uwTick += uwTickFreq;
 800023c:	4b06      	ldr	r3, [pc, #24]	; (8000258 <HAL_IncTick+0x20>)
 800023e:	781b      	ldrb	r3, [r3, #0]
 8000240:	461a      	mov	r2, r3
 8000242:	4b06      	ldr	r3, [pc, #24]	; (800025c <HAL_IncTick+0x24>)
 8000244:	681b      	ldr	r3, [r3, #0]
 8000246:	4413      	add	r3, r2
 8000248:	4a04      	ldr	r2, [pc, #16]	; (800025c <HAL_IncTick+0x24>)
 800024a:	6013      	str	r3, [r2, #0]
}
 800024c:	bf00      	nop
 800024e:	46bd      	mov	sp, r7
 8000250:	f85d 7b04 	ldr.w	r7, [sp], #4
 8000254:	4770      	bx	lr
 8000256:	bf00      	nop
 8000258:	20020000 	.word	0x20020000
 800025c:	200201fc 	.word	0x200201fc

08000260 <HAL_GetTick>:
  * @note This function is declared as __weak to be overwritten in case of other 
  *       implementations in user file.
  * @retval tick value
  */
__weak uint32_t HAL_GetTick(void)
{
 8000260:	b480      	push	{r7}
 8000262:	af00      	add	r7, sp, #0
  return uwTick;
 8000264:	4b03      	ldr	r3, [pc, #12]	; (8000274 <HAL_GetTick+0x14>)
 8000266:	681b      	ldr	r3, [r3, #0]
}
 8000268:	4618      	mov	r0, r3
 800026a:	46bd      	mov	sp, r7
 800026c:	f85d 7b04 	ldr.w	r7, [sp], #4
 8000270:	4770      	bx	lr
 8000272:	bf00      	nop
 8000274:	200201fc 	.word	0x200201fc

08000278 <HAL_Delay>:
  *       implementations in user file.
  * @param Delay  specifies the delay time length, in milliseconds.
  * @retval None
  */
__weak void HAL_Delay(uint32_t Delay)
{
 8000278:	b580      	push	{r7, lr}
 800027a:	b084      	sub	sp, #16
 800027c:	af00      	add	r7, sp, #0
 800027e:	6078      	str	r0, [r7, #4]
  uint32_t tickstart = HAL_GetTick();
 8000280:	f7ff ffee 	bl	8000260 <HAL_GetTick>
 8000284:	60b8      	str	r0, [r7, #8]
  uint32_t wait = Delay;
 8000286:	687b      	ldr	r3, [r7, #4]
 8000288:	60fb      	str	r3, [r7, #12]

  /* Add a freq to guarantee minimum wait */
  if (wait < HAL_MAX_DELAY)
 800028a:	68fb      	ldr	r3, [r7, #12]
 800028c:	f1b3 3fff 	cmp.w	r3, #4294967295
 8000290:	d005      	beq.n	800029e <HAL_Delay+0x26>
  {
    wait += (uint32_t)(uwTickFreq);
 8000292:	4b09      	ldr	r3, [pc, #36]	; (80002b8 <HAL_Delay+0x40>)
 8000294:	781b      	ldrb	r3, [r3, #0]
 8000296:	461a      	mov	r2, r3
 8000298:	68fb      	ldr	r3, [r7, #12]
 800029a:	4413      	add	r3, r2
 800029c:	60fb      	str	r3, [r7, #12]
  }

  while ((HAL_GetTick() - tickstart) < wait)
 800029e:	bf00      	nop
 80002a0:	f7ff ffde 	bl	8000260 <HAL_GetTick>
 80002a4:	4602      	mov	r2, r0
 80002a6:	68bb      	ldr	r3, [r7, #8]
 80002a8:	1ad2      	subs	r2, r2, r3
 80002aa:	68fb      	ldr	r3, [r7, #12]
 80002ac:	429a      	cmp	r2, r3
 80002ae:	d3f7      	bcc.n	80002a0 <HAL_Delay+0x28>
  {
  }
}
 80002b0:	bf00      	nop
 80002b2:	3710      	adds	r7, #16
 80002b4:	46bd      	mov	sp, r7
 80002b6:	bd80      	pop	{r7, pc}
 80002b8:	20020000 	.word	0x20020000

080002bc <NVIC_GetPriorityGrouping>:
  \brief   Get Priority Grouping
  \details Reads the priority grouping field from the NVIC Interrupt Controller.
  \return                Priority grouping field (SCB->AIRCR [10:8] PRIGROUP field).
 */
__STATIC_INLINE uint32_t NVIC_GetPriorityGrouping(void)
{
 80002bc:	b480      	push	{r7}
 80002be:	af00      	add	r7, sp, #0
  return ((uint32_t)((SCB->AIRCR & SCB_AIRCR_PRIGROUP_Msk) >> SCB_AIRCR_PRIGROUP_Pos));
 80002c0:	4b04      	ldr	r3, [pc, #16]	; (80002d4 <NVIC_GetPriorityGrouping+0x18>)
 80002c2:	68db      	ldr	r3, [r3, #12]
 80002c4:	0a1b      	lsrs	r3, r3, #8
 80002c6:	f003 0307 	and.w	r3, r3, #7
}
 80002ca:	4618      	mov	r0, r3
 80002cc:	46bd      	mov	sp, r7
 80002ce:	f85d 7b04 	ldr.w	r7, [sp], #4
 80002d2:	4770      	bx	lr
 80002d4:	e000ed00 	.word	0xe000ed00

080002d8 <NVIC_EnableIRQ>:
  \brief   Enable External Interrupt
  \details Enables a device-specific interrupt in the NVIC interrupt controller.
  \param [in]      IRQn  External interrupt number. Value cannot be negative.
 */
__STATIC_INLINE void NVIC_EnableIRQ(IRQn_Type IRQn)
{
 80002d8:	b480      	push	{r7}
 80002da:	b083      	sub	sp, #12
 80002dc:	af00      	add	r7, sp, #0
 80002de:	4603      	mov	r3, r0
 80002e0:	71fb      	strb	r3, [r7, #7]
  NVIC->ISER[(((uint32_t)(int32_t)IRQn) >> 5UL)] = (uint32_t)(1UL << (((uint32_t)(int32_t)IRQn) & 0x1FUL));
 80002e2:	4909      	ldr	r1, [pc, #36]	; (8000308 <NVIC_EnableIRQ+0x30>)
 80002e4:	f997 3007 	ldrsb.w	r3, [r7, #7]
 80002e8:	095b      	lsrs	r3, r3, #5
 80002ea:	79fa      	ldrb	r2, [r7, #7]
 80002ec:	f002 021f 	and.w	r2, r2, #31
 80002f0:	2001      	movs	r0, #1
 80002f2:	fa00 f202 	lsl.w	r2, r0, r2
 80002f6:	f841 2023 	str.w	r2, [r1, r3, lsl #2]
}
 80002fa:	bf00      	nop
 80002fc:	370c      	adds	r7, #12
 80002fe:	46bd      	mov	sp, r7
 8000300:	f85d 7b04 	ldr.w	r7, [sp], #4
 8000304:	4770      	bx	lr
 8000306:	bf00      	nop
 8000308:	e000e100 	.word	0xe000e100

0800030c <NVIC_SetPriority>:
  \note    The priority cannot be set for every core interrupt.
  \param [in]      IRQn  Interrupt number.
  \param [in]  priority  Priority to set.
 */
__STATIC_INLINE void NVIC_SetPriority(IRQn_Type IRQn, uint32_t priority)
{
 800030c:	b480      	push	{r7}
 800030e:	b083      	sub	sp, #12
 8000310:	af00      	add	r7, sp, #0
 8000312:	4603      	mov	r3, r0
 8000314:	6039      	str	r1, [r7, #0]
 8000316:	71fb      	strb	r3, [r7, #7]
  if ((int32_t)(IRQn) < 0)
 8000318:	f997 3007 	ldrsb.w	r3, [r7, #7]
 800031c:	2b00      	cmp	r3, #0
 800031e:	da0b      	bge.n	8000338 <NVIC_SetPriority+0x2c>
  {
    SCB->SHPR[(((uint32_t)(int32_t)IRQn) & 0xFUL)-4UL] = (uint8_t)((priority << (8U - __NVIC_PRIO_BITS)) & (uint32_t)0xFFUL);
 8000320:	490d      	ldr	r1, [pc, #52]	; (8000358 <NVIC_SetPriority+0x4c>)
 8000322:	79fb      	ldrb	r3, [r7, #7]
 8000324:	f003 030f 	and.w	r3, r3, #15
 8000328:	3b04      	subs	r3, #4
 800032a:	683a      	ldr	r2, [r7, #0]
 800032c:	b2d2      	uxtb	r2, r2
 800032e:	0112      	lsls	r2, r2, #4
 8000330:	b2d2      	uxtb	r2, r2
 8000332:	440b      	add	r3, r1
 8000334:	761a      	strb	r2, [r3, #24]
  }
  else
  {
    NVIC->IP[((uint32_t)(int32_t)IRQn)]                = (uint8_t)((priority << (8U - __NVIC_PRIO_BITS)) & (uint32_t)0xFFUL);
  }
}
 8000336:	e009      	b.n	800034c <NVIC_SetPriority+0x40>
    NVIC->IP[((uint32_t)(int32_t)IRQn)]                = (uint8_t)((priority << (8U - __NVIC_PRIO_BITS)) & (uint32_t)0xFFUL);
 8000338:	4908      	ldr	r1, [pc, #32]	; (800035c <NVIC_SetPriority+0x50>)
 800033a:	f997 3007 	ldrsb.w	r3, [r7, #7]
 800033e:	683a      	ldr	r2, [r7, #0]
 8000340:	b2d2      	uxtb	r2, r2
 8000342:	0112      	lsls	r2, r2, #4
 8000344:	b2d2      	uxtb	r2, r2
 8000346:	440b      	add	r3, r1
 8000348:	f883 2300 	strb.w	r2, [r3, #768]	; 0x300
}
 800034c:	bf00      	nop
 800034e:	370c      	adds	r7, #12
 8000350:	46bd      	mov	sp, r7
 8000352:	f85d 7b04 	ldr.w	r7, [sp], #4
 8000356:	4770      	bx	lr
 8000358:	e000ed00 	.word	0xe000ed00
 800035c:	e000e100 	.word	0xe000e100

08000360 <NVIC_EncodePriority>:
  \param [in]   PreemptPriority  Preemptive priority value (starting from 0).
  \param [in]       SubPriority  Subpriority value (starting from 0).
  \return                        Encoded priority. Value can be used in the function \ref NVIC_SetPriority().
 */
__STATIC_INLINE uint32_t NVIC_EncodePriority (uint32_t PriorityGroup, uint32_t PreemptPriority, uint32_t SubPriority)
{
 8000360:	b480      	push	{r7}
 8000362:	b089      	sub	sp, #36	; 0x24
 8000364:	af00      	add	r7, sp, #0
 8000366:	60f8      	str	r0, [r7, #12]
 8000368:	60b9      	str	r1, [r7, #8]
 800036a:	607a      	str	r2, [r7, #4]
  uint32_t PriorityGroupTmp = (PriorityGroup & (uint32_t)0x07UL);   /* only values 0..7 are used          */
 800036c:	68fb      	ldr	r3, [r7, #12]
 800036e:	f003 0307 	and.w	r3, r3, #7
 8000372:	61fb      	str	r3, [r7, #28]
  uint32_t PreemptPriorityBits;
  uint32_t SubPriorityBits;

  PreemptPriorityBits = ((7UL - PriorityGroupTmp) > (uint32_t)(__NVIC_PRIO_BITS)) ? (uint32_t)(__NVIC_PRIO_BITS) : (uint32_t)(7UL - PriorityGroupTmp);
 8000374:	69fb      	ldr	r3, [r7, #28]
 8000376:	f1c3 0307 	rsb	r3, r3, #7
 800037a:	2b04      	cmp	r3, #4
 800037c:	bf28      	it	cs
 800037e:	2304      	movcs	r3, #4
 8000380:	61bb      	str	r3, [r7, #24]
  SubPriorityBits     = ((PriorityGroupTmp + (uint32_t)(__NVIC_PRIO_BITS)) < (uint32_t)7UL) ? (uint32_t)0UL : (uint32_t)((PriorityGroupTmp - 7UL) + (uint32_t)(__NVIC_PRIO_BITS));
 8000382:	69fb      	ldr	r3, [r7, #28]
 8000384:	3304      	adds	r3, #4
 8000386:	2b06      	cmp	r3, #6
 8000388:	d902      	bls.n	8000390 <NVIC_EncodePriority+0x30>
 800038a:	69fb      	ldr	r3, [r7, #28]
 800038c:	3b03      	subs	r3, #3
 800038e:	e000      	b.n	8000392 <NVIC_EncodePriority+0x32>
 8000390:	2300      	movs	r3, #0
 8000392:	617b      	str	r3, [r7, #20]

  return (
           ((PreemptPriority & (uint32_t)((1UL << (PreemptPriorityBits)) - 1UL)) << SubPriorityBits) |
 8000394:	2201      	movs	r2, #1
 8000396:	69bb      	ldr	r3, [r7, #24]
 8000398:	fa02 f303 	lsl.w	r3, r2, r3
 800039c:	1e5a      	subs	r2, r3, #1
 800039e:	68bb      	ldr	r3, [r7, #8]
 80003a0:	401a      	ands	r2, r3
 80003a2:	697b      	ldr	r3, [r7, #20]
 80003a4:	409a      	lsls	r2, r3
           ((SubPriority     & (uint32_t)((1UL << (SubPriorityBits    )) - 1UL)))
 80003a6:	2101      	movs	r1, #1
 80003a8:	697b      	ldr	r3, [r7, #20]
 80003aa:	fa01 f303 	lsl.w	r3, r1, r3
 80003ae:	1e59      	subs	r1, r3, #1
 80003b0:	687b      	ldr	r3, [r7, #4]
 80003b2:	400b      	ands	r3, r1
           ((PreemptPriority & (uint32_t)((1UL << (PreemptPriorityBits)) - 1UL)) << SubPriorityBits) |
 80003b4:	4313      	orrs	r3, r2
         );
}
 80003b6:	4618      	mov	r0, r3
 80003b8:	3724      	adds	r7, #36	; 0x24
 80003ba:	46bd      	mov	sp, r7
 80003bc:	f85d 7b04 	ldr.w	r7, [sp], #4
 80003c0:	4770      	bx	lr

080003c2 <HAL_NVIC_SetPriority>:
  *         This parameter can be a value between 0 and 15
  *         A lower priority value indicates a higher priority.          
  * @retval None
  */
void HAL_NVIC_SetPriority(IRQn_Type IRQn, uint32_t PreemptPriority, uint32_t SubPriority)
{ 
 80003c2:	b580      	push	{r7, lr}
 80003c4:	b086      	sub	sp, #24
 80003c6:	af00      	add	r7, sp, #0
 80003c8:	4603      	mov	r3, r0
 80003ca:	60b9      	str	r1, [r7, #8]
 80003cc:	607a      	str	r2, [r7, #4]
 80003ce:	73fb      	strb	r3, [r7, #15]
  uint32_t prioritygroup = 0x00;
 80003d0:	2300      	movs	r3, #0
 80003d2:	617b      	str	r3, [r7, #20]
  
  /* Check the parameters */
  assert_param(IS_NVIC_SUB_PRIORITY(SubPriority));
  assert_param(IS_NVIC_PREEMPTION_PRIORITY(PreemptPriority));
  
  prioritygroup = NVIC_GetPriorityGrouping();
 80003d4:	f7ff ff72 	bl	80002bc <NVIC_GetPriorityGrouping>
 80003d8:	6178      	str	r0, [r7, #20]
  
  NVIC_SetPriority(IRQn, NVIC_EncodePriority(prioritygroup, PreemptPriority, SubPriority));
 80003da:	687a      	ldr	r2, [r7, #4]
 80003dc:	68b9      	ldr	r1, [r7, #8]
 80003de:	6978      	ldr	r0, [r7, #20]
 80003e0:	f7ff ffbe 	bl	8000360 <NVIC_EncodePriority>
 80003e4:	4602      	mov	r2, r0
 80003e6:	f997 300f 	ldrsb.w	r3, [r7, #15]
 80003ea:	4611      	mov	r1, r2
 80003ec:	4618      	mov	r0, r3
 80003ee:	f7ff ff8d 	bl	800030c <NVIC_SetPriority>
}
 80003f2:	bf00      	nop
 80003f4:	3718      	adds	r7, #24
 80003f6:	46bd      	mov	sp, r7
 80003f8:	bd80      	pop	{r7, pc}

080003fa <HAL_NVIC_EnableIRQ>:
  *         This parameter can be an enumerator of IRQn_Type enumeration
  *         (For the complete STM32 Devices IRQ Channels list, please refer to the appropriate CMSIS device file (stm32f7xxxx.h))
  * @retval None
  */
void HAL_NVIC_EnableIRQ(IRQn_Type IRQn)
{
 80003fa:	b580      	push	{r7, lr}
 80003fc:	b082      	sub	sp, #8
 80003fe:	af00      	add	r7, sp, #0
 8000400:	4603      	mov	r3, r0
 8000402:	71fb      	strb	r3, [r7, #7]
  /* Check the parameters */
  assert_param(IS_NVIC_DEVICE_IRQ(IRQn));
  
  /* Enable interrupt */
  NVIC_EnableIRQ(IRQn);
 8000404:	f997 3007 	ldrsb.w	r3, [r7, #7]
 8000408:	4618      	mov	r0, r3
 800040a:	f7ff ff65 	bl	80002d8 <NVIC_EnableIRQ>
}
 800040e:	bf00      	nop
 8000410:	3708      	adds	r7, #8
 8000412:	46bd      	mov	sp, r7
 8000414:	bd80      	pop	{r7, pc}

08000416 <HAL_SYSTICK_IRQHandler>:
/**
  * @brief  This function handles SYSTICK interrupt request.
  * @retval None
  */
void HAL_SYSTICK_IRQHandler(void)
{
 8000416:	b580      	push	{r7, lr}
 8000418:	af00      	add	r7, sp, #0
  HAL_SYSTICK_Callback();
 800041a:	f000 f802 	bl	8000422 <HAL_SYSTICK_Callback>
}
 800041e:	bf00      	nop
 8000420:	bd80      	pop	{r7, pc}

08000422 <HAL_SYSTICK_Callback>:
/**
  * @brief  SYSTICK callback.
  * @retval None
  */
__weak void HAL_SYSTICK_Callback(void)
{
 8000422:	b480      	push	{r7}
 8000424:	af00      	add	r7, sp, #0
  /* NOTE : This function Should not be modified, when the callback is needed,
            the HAL_SYSTICK_Callback could be implemented in the user file
   */
}
 8000426:	bf00      	nop
 8000428:	46bd      	mov	sp, r7
 800042a:	f85d 7b04 	ldr.w	r7, [sp], #4
 800042e:	4770      	bx	lr

08000430 <HAL_GPIO_Init>:
  * @param  GPIO_Init pointer to a GPIO_InitTypeDef structure that contains
  *         the configuration information for the specified GPIO peripheral.
  * @retval None
  */
void HAL_GPIO_Init(GPIO_TypeDef  *GPIOx, GPIO_InitTypeDef *GPIO_Init)
{
 8000430:	b480      	push	{r7}
 8000432:	b089      	sub	sp, #36	; 0x24
 8000434:	af00      	add	r7, sp, #0
 8000436:	6078      	str	r0, [r7, #4]
 8000438:	6039      	str	r1, [r7, #0]
  uint32_t position = 0x00;
 800043a:	2300      	movs	r3, #0
 800043c:	61fb      	str	r3, [r7, #28]
  uint32_t ioposition = 0x00;
 800043e:	2300      	movs	r3, #0
 8000440:	617b      	str	r3, [r7, #20]
  uint32_t iocurrent = 0x00;
 8000442:	2300      	movs	r3, #0
 8000444:	613b      	str	r3, [r7, #16]
  uint32_t temp = 0x00;
 8000446:	2300      	movs	r3, #0
 8000448:	61bb      	str	r3, [r7, #24]
  assert_param(IS_GPIO_PIN(GPIO_Init->Pin));
  assert_param(IS_GPIO_MODE(GPIO_Init->Mode));
  assert_param(IS_GPIO_PULL(GPIO_Init->Pull));

  /* Configure the port pins */
  for(position = 0; position < GPIO_NUMBER; position++)
 800044a:	2300      	movs	r3, #0
 800044c:	61fb      	str	r3, [r7, #28]
 800044e:	e175      	b.n	800073c <HAL_GPIO_Init+0x30c>
  {
    /* Get the IO position */
    ioposition = ((uint32_t)0x01) << position;
 8000450:	2201      	movs	r2, #1
 8000452:	69fb      	ldr	r3, [r7, #28]
 8000454:	fa02 f303 	lsl.w	r3, r2, r3
 8000458:	617b      	str	r3, [r7, #20]
    /* Get the current IO position */
    iocurrent = (uint32_t)(GPIO_Init->Pin) & ioposition;
 800045a:	683b      	ldr	r3, [r7, #0]
 800045c:	681a      	ldr	r2, [r3, #0]
 800045e:	697b      	ldr	r3, [r7, #20]
 8000460:	4013      	ands	r3, r2
 8000462:	613b      	str	r3, [r7, #16]

    if(iocurrent == ioposition)
 8000464:	693a      	ldr	r2, [r7, #16]
 8000466:	697b      	ldr	r3, [r7, #20]
 8000468:	429a      	cmp	r2, r3
 800046a:	f040 8164 	bne.w	8000736 <HAL_GPIO_Init+0x306>
    {
      /*--------------------- GPIO Mode Configuration ------------------------*/
      /* In case of Alternate function mode selection */
      if((GPIO_Init->Mode == GPIO_MODE_AF_PP) || (GPIO_Init->Mode == GPIO_MODE_AF_OD))
 800046e:	683b      	ldr	r3, [r7, #0]
 8000470:	685b      	ldr	r3, [r3, #4]
 8000472:	2b02      	cmp	r3, #2
 8000474:	d003      	beq.n	800047e <HAL_GPIO_Init+0x4e>
 8000476:	683b      	ldr	r3, [r7, #0]
 8000478:	685b      	ldr	r3, [r3, #4]
 800047a:	2b12      	cmp	r3, #18
 800047c:	d123      	bne.n	80004c6 <HAL_GPIO_Init+0x96>
      {
        /* Check the Alternate function parameter */
        assert_param(IS_GPIO_AF(GPIO_Init->Alternate));
        
        /* Configure Alternate function mapped with the current IO */
        temp = GPIOx->AFR[position >> 3];
 800047e:	69fb      	ldr	r3, [r7, #28]
 8000480:	08da      	lsrs	r2, r3, #3
 8000482:	687b      	ldr	r3, [r7, #4]
 8000484:	3208      	adds	r2, #8
 8000486:	f853 3022 	ldr.w	r3, [r3, r2, lsl #2]
 800048a:	61bb      	str	r3, [r7, #24]
        temp &= ~((uint32_t)0xF << ((uint32_t)(position & (uint32_t)0x07) * 4)) ;
 800048c:	69fb      	ldr	r3, [r7, #28]
 800048e:	f003 0307 	and.w	r3, r3, #7
 8000492:	009b      	lsls	r3, r3, #2
 8000494:	220f      	movs	r2, #15
 8000496:	fa02 f303 	lsl.w	r3, r2, r3
 800049a:	43db      	mvns	r3, r3
 800049c:	69ba      	ldr	r2, [r7, #24]
 800049e:	4013      	ands	r3, r2
 80004a0:	61bb      	str	r3, [r7, #24]
        temp |= ((uint32_t)(GPIO_Init->Alternate) << (((uint32_t)position & (uint32_t)0x07) * 4));
 80004a2:	683b      	ldr	r3, [r7, #0]
 80004a4:	691a      	ldr	r2, [r3, #16]
 80004a6:	69fb      	ldr	r3, [r7, #28]
 80004a8:	f003 0307 	and.w	r3, r3, #7
 80004ac:	009b      	lsls	r3, r3, #2
 80004ae:	fa02 f303 	lsl.w	r3, r2, r3
 80004b2:	69ba      	ldr	r2, [r7, #24]
 80004b4:	4313      	orrs	r3, r2
 80004b6:	61bb      	str	r3, [r7, #24]
        GPIOx->AFR[position >> 3] = temp;
 80004b8:	69fb      	ldr	r3, [r7, #28]
 80004ba:	08da      	lsrs	r2, r3, #3
 80004bc:	687b      	ldr	r3, [r7, #4]
 80004be:	3208      	adds	r2, #8
 80004c0:	69b9      	ldr	r1, [r7, #24]
 80004c2:	f843 1022 	str.w	r1, [r3, r2, lsl #2]
      }

      /* Configure IO Direction mode (Input, Output, Alternate or Analog) */
      temp = GPIOx->MODER;
 80004c6:	687b      	ldr	r3, [r7, #4]
 80004c8:	681b      	ldr	r3, [r3, #0]
 80004ca:	61bb      	str	r3, [r7, #24]
      temp &= ~(GPIO_MODER_MODER0 << (position * 2));
 80004cc:	69fb      	ldr	r3, [r7, #28]
 80004ce:	005b      	lsls	r3, r3, #1
 80004d0:	2203      	movs	r2, #3
 80004d2:	fa02 f303 	lsl.w	r3, r2, r3
 80004d6:	43db      	mvns	r3, r3
 80004d8:	69ba      	ldr	r2, [r7, #24]
 80004da:	4013      	ands	r3, r2
 80004dc:	61bb      	str	r3, [r7, #24]
      temp |= ((GPIO_Init->Mode & GPIO_MODE) << (position * 2));
 80004de:	683b      	ldr	r3, [r7, #0]
 80004e0:	685b      	ldr	r3, [r3, #4]
 80004e2:	f003 0203 	and.w	r2, r3, #3
 80004e6:	69fb      	ldr	r3, [r7, #28]
 80004e8:	005b      	lsls	r3, r3, #1
 80004ea:	fa02 f303 	lsl.w	r3, r2, r3
 80004ee:	69ba      	ldr	r2, [r7, #24]
 80004f0:	4313      	orrs	r3, r2
 80004f2:	61bb      	str	r3, [r7, #24]
      GPIOx->MODER = temp;
 80004f4:	687b      	ldr	r3, [r7, #4]
 80004f6:	69ba      	ldr	r2, [r7, #24]
 80004f8:	601a      	str	r2, [r3, #0]

      /* In case of Output or Alternate function mode selection */
      if((GPIO_Init->Mode == GPIO_MODE_OUTPUT_PP) || (GPIO_Init->Mode == GPIO_MODE_AF_PP) ||
 80004fa:	683b      	ldr	r3, [r7, #0]
 80004fc:	685b      	ldr	r3, [r3, #4]
 80004fe:	2b01      	cmp	r3, #1
 8000500:	d00b      	beq.n	800051a <HAL_GPIO_Init+0xea>
 8000502:	683b      	ldr	r3, [r7, #0]
 8000504:	685b      	ldr	r3, [r3, #4]
 8000506:	2b02      	cmp	r3, #2
 8000508:	d007      	beq.n	800051a <HAL_GPIO_Init+0xea>
         (GPIO_Init->Mode == GPIO_MODE_OUTPUT_OD) || (GPIO_Init->Mode == GPIO_MODE_AF_OD))
 800050a:	683b      	ldr	r3, [r7, #0]
 800050c:	685b      	ldr	r3, [r3, #4]
      if((GPIO_Init->Mode == GPIO_MODE_OUTPUT_PP) || (GPIO_Init->Mode == GPIO_MODE_AF_PP) ||
 800050e:	2b11      	cmp	r3, #17
 8000510:	d003      	beq.n	800051a <HAL_GPIO_Init+0xea>
         (GPIO_Init->Mode == GPIO_MODE_OUTPUT_OD) || (GPIO_Init->Mode == GPIO_MODE_AF_OD))
 8000512:	683b      	ldr	r3, [r7, #0]
 8000514:	685b      	ldr	r3, [r3, #4]
 8000516:	2b12      	cmp	r3, #18
 8000518:	d130      	bne.n	800057c <HAL_GPIO_Init+0x14c>
      {
        /* Check the Speed parameter */
        assert_param(IS_GPIO_SPEED(GPIO_Init->Speed));
        /* Configure the IO Speed */
        temp = GPIOx->OSPEEDR; 
 800051a:	687b      	ldr	r3, [r7, #4]
 800051c:	689b      	ldr	r3, [r3, #8]
 800051e:	61bb      	str	r3, [r7, #24]
        temp &= ~(GPIO_OSPEEDER_OSPEEDR0 << (position * 2));
 8000520:	69fb      	ldr	r3, [r7, #28]
 8000522:	005b      	lsls	r3, r3, #1
 8000524:	2203      	movs	r2, #3
 8000526:	fa02 f303 	lsl.w	r3, r2, r3
 800052a:	43db      	mvns	r3, r3
 800052c:	69ba      	ldr	r2, [r7, #24]
 800052e:	4013      	ands	r3, r2
 8000530:	61bb      	str	r3, [r7, #24]
        temp |= (GPIO_Init->Speed << (position * 2));
 8000532:	683b      	ldr	r3, [r7, #0]
 8000534:	68da      	ldr	r2, [r3, #12]
 8000536:	69fb      	ldr	r3, [r7, #28]
 8000538:	005b      	lsls	r3, r3, #1
 800053a:	fa02 f303 	lsl.w	r3, r2, r3
 800053e:	69ba      	ldr	r2, [r7, #24]
 8000540:	4313      	orrs	r3, r2
 8000542:	61bb      	str	r3, [r7, #24]
        GPIOx->OSPEEDR = temp;
 8000544:	687b      	ldr	r3, [r7, #4]
 8000546:	69ba      	ldr	r2, [r7, #24]
 8000548:	609a      	str	r2, [r3, #8]

        /* Configure the IO Output Type */
        temp = GPIOx->OTYPER;
 800054a:	687b      	ldr	r3, [r7, #4]
 800054c:	685b      	ldr	r3, [r3, #4]
 800054e:	61bb      	str	r3, [r7, #24]
        temp &= ~(GPIO_OTYPER_OT_0 << position) ;
 8000550:	2201      	movs	r2, #1
 8000552:	69fb      	ldr	r3, [r7, #28]
 8000554:	fa02 f303 	lsl.w	r3, r2, r3
 8000558:	43db      	mvns	r3, r3
 800055a:	69ba      	ldr	r2, [r7, #24]
 800055c:	4013      	ands	r3, r2
 800055e:	61bb      	str	r3, [r7, #24]
        temp |= (((GPIO_Init->Mode & GPIO_OUTPUT_TYPE) >> 4) << position);
 8000560:	683b      	ldr	r3, [r7, #0]
 8000562:	685b      	ldr	r3, [r3, #4]
 8000564:	091b      	lsrs	r3, r3, #4
 8000566:	f003 0201 	and.w	r2, r3, #1
 800056a:	69fb      	ldr	r3, [r7, #28]
 800056c:	fa02 f303 	lsl.w	r3, r2, r3
 8000570:	69ba      	ldr	r2, [r7, #24]
 8000572:	4313      	orrs	r3, r2
 8000574:	61bb      	str	r3, [r7, #24]
        GPIOx->OTYPER = temp;
 8000576:	687b      	ldr	r3, [r7, #4]
 8000578:	69ba      	ldr	r2, [r7, #24]
 800057a:	605a      	str	r2, [r3, #4]
      }

      /* Activate the Pull-up or Pull down resistor for the current IO */
      temp = GPIOx->PUPDR;
 800057c:	687b      	ldr	r3, [r7, #4]
 800057e:	68db      	ldr	r3, [r3, #12]
 8000580:	61bb      	str	r3, [r7, #24]
      temp &= ~(GPIO_PUPDR_PUPDR0 << (position * 2));
 8000582:	69fb      	ldr	r3, [r7, #28]
 8000584:	005b      	lsls	r3, r3, #1
 8000586:	2203      	movs	r2, #3
 8000588:	fa02 f303 	lsl.w	r3, r2, r3
 800058c:	43db      	mvns	r3, r3
 800058e:	69ba      	ldr	r2, [r7, #24]
 8000590:	4013      	ands	r3, r2
 8000592:	61bb      	str	r3, [r7, #24]
      temp |= ((GPIO_Init->Pull) << (position * 2));
 8000594:	683b      	ldr	r3, [r7, #0]
 8000596:	689a      	ldr	r2, [r3, #8]
 8000598:	69fb      	ldr	r3, [r7, #28]
 800059a:	005b      	lsls	r3, r3, #1
 800059c:	fa02 f303 	lsl.w	r3, r2, r3
 80005a0:	69ba      	ldr	r2, [r7, #24]
 80005a2:	4313      	orrs	r3, r2
 80005a4:	61bb      	str	r3, [r7, #24]
      GPIOx->PUPDR = temp;
 80005a6:	687b      	ldr	r3, [r7, #4]
 80005a8:	69ba      	ldr	r2, [r7, #24]
 80005aa:	60da      	str	r2, [r3, #12]

      /*--------------------- EXTI Mode Configuration ------------------------*/
      /* Configure the External Interrupt or event for the current IO */
      if((GPIO_Init->Mode & EXTI_MODE) == EXTI_MODE)
 80005ac:	683b      	ldr	r3, [r7, #0]
 80005ae:	685b      	ldr	r3, [r3, #4]
 80005b0:	f003 5380 	and.w	r3, r3, #268435456	; 0x10000000
 80005b4:	2b00      	cmp	r3, #0
 80005b6:	f000 80be 	beq.w	8000736 <HAL_GPIO_Init+0x306>
      {
        /* Enable SYSCFG Clock */
        __HAL_RCC_SYSCFG_CLK_ENABLE();
 80005ba:	4a65      	ldr	r2, [pc, #404]	; (8000750 <HAL_GPIO_Init+0x320>)
 80005bc:	4b64      	ldr	r3, [pc, #400]	; (8000750 <HAL_GPIO_Init+0x320>)
 80005be:	6c5b      	ldr	r3, [r3, #68]	; 0x44
 80005c0:	f443 4380 	orr.w	r3, r3, #16384	; 0x4000
 80005c4:	6453      	str	r3, [r2, #68]	; 0x44
 80005c6:	4b62      	ldr	r3, [pc, #392]	; (8000750 <HAL_GPIO_Init+0x320>)
 80005c8:	6c5b      	ldr	r3, [r3, #68]	; 0x44
 80005ca:	f403 4380 	and.w	r3, r3, #16384	; 0x4000
 80005ce:	60fb      	str	r3, [r7, #12]
 80005d0:	68fb      	ldr	r3, [r7, #12]

        temp = SYSCFG->EXTICR[position >> 2];
 80005d2:	4a60      	ldr	r2, [pc, #384]	; (8000754 <HAL_GPIO_Init+0x324>)
 80005d4:	69fb      	ldr	r3, [r7, #28]
 80005d6:	089b      	lsrs	r3, r3, #2
 80005d8:	3302      	adds	r3, #2
 80005da:	f852 3023 	ldr.w	r3, [r2, r3, lsl #2]
 80005de:	61bb      	str	r3, [r7, #24]
        temp &= ~(((uint32_t)0x0F) << (4 * (position & 0x03)));
 80005e0:	69fb      	ldr	r3, [r7, #28]
 80005e2:	f003 0303 	and.w	r3, r3, #3
 80005e6:	009b      	lsls	r3, r3, #2
 80005e8:	220f      	movs	r2, #15
 80005ea:	fa02 f303 	lsl.w	r3, r2, r3
 80005ee:	43db      	mvns	r3, r3
 80005f0:	69ba      	ldr	r2, [r7, #24]
 80005f2:	4013      	ands	r3, r2
 80005f4:	61bb      	str	r3, [r7, #24]
        temp |= ((uint32_t)(GPIO_GET_INDEX(GPIOx)) << (4 * (position & 0x03)));
 80005f6:	687b      	ldr	r3, [r7, #4]
 80005f8:	4a57      	ldr	r2, [pc, #348]	; (8000758 <HAL_GPIO_Init+0x328>)
 80005fa:	4293      	cmp	r3, r2
 80005fc:	d037      	beq.n	800066e <HAL_GPIO_Init+0x23e>
 80005fe:	687b      	ldr	r3, [r7, #4]
 8000600:	4a56      	ldr	r2, [pc, #344]	; (800075c <HAL_GPIO_Init+0x32c>)
 8000602:	4293      	cmp	r3, r2
 8000604:	d031      	beq.n	800066a <HAL_GPIO_Init+0x23a>
 8000606:	687b      	ldr	r3, [r7, #4]
 8000608:	4a55      	ldr	r2, [pc, #340]	; (8000760 <HAL_GPIO_Init+0x330>)
 800060a:	4293      	cmp	r3, r2
 800060c:	d02b      	beq.n	8000666 <HAL_GPIO_Init+0x236>
 800060e:	687b      	ldr	r3, [r7, #4]
 8000610:	4a54      	ldr	r2, [pc, #336]	; (8000764 <HAL_GPIO_Init+0x334>)
 8000612:	4293      	cmp	r3, r2
 8000614:	d025      	beq.n	8000662 <HAL_GPIO_Init+0x232>
 8000616:	687b      	ldr	r3, [r7, #4]
 8000618:	4a53      	ldr	r2, [pc, #332]	; (8000768 <HAL_GPIO_Init+0x338>)
 800061a:	4293      	cmp	r3, r2
 800061c:	d01f      	beq.n	800065e <HAL_GPIO_Init+0x22e>
 800061e:	687b      	ldr	r3, [r7, #4]
 8000620:	4a52      	ldr	r2, [pc, #328]	; (800076c <HAL_GPIO_Init+0x33c>)
 8000622:	4293      	cmp	r3, r2
 8000624:	d019      	beq.n	800065a <HAL_GPIO_Init+0x22a>
 8000626:	687b      	ldr	r3, [r7, #4]
 8000628:	4a51      	ldr	r2, [pc, #324]	; (8000770 <HAL_GPIO_Init+0x340>)
 800062a:	4293      	cmp	r3, r2
 800062c:	d013      	beq.n	8000656 <HAL_GPIO_Init+0x226>
 800062e:	687b      	ldr	r3, [r7, #4]
 8000630:	4a50      	ldr	r2, [pc, #320]	; (8000774 <HAL_GPIO_Init+0x344>)
 8000632:	4293      	cmp	r3, r2
 8000634:	d00d      	beq.n	8000652 <HAL_GPIO_Init+0x222>
 8000636:	687b      	ldr	r3, [r7, #4]
 8000638:	4a4f      	ldr	r2, [pc, #316]	; (8000778 <HAL_GPIO_Init+0x348>)
 800063a:	4293      	cmp	r3, r2
 800063c:	d007      	beq.n	800064e <HAL_GPIO_Init+0x21e>
 800063e:	687b      	ldr	r3, [r7, #4]
 8000640:	4a4e      	ldr	r2, [pc, #312]	; (800077c <HAL_GPIO_Init+0x34c>)
 8000642:	4293      	cmp	r3, r2
 8000644:	d101      	bne.n	800064a <HAL_GPIO_Init+0x21a>
 8000646:	2309      	movs	r3, #9
 8000648:	e012      	b.n	8000670 <HAL_GPIO_Init+0x240>
 800064a:	230a      	movs	r3, #10
 800064c:	e010      	b.n	8000670 <HAL_GPIO_Init+0x240>
 800064e:	2308      	movs	r3, #8
 8000650:	e00e      	b.n	8000670 <HAL_GPIO_Init+0x240>
 8000652:	2307      	movs	r3, #7
 8000654:	e00c      	b.n	8000670 <HAL_GPIO_Init+0x240>
 8000656:	2306      	movs	r3, #6
 8000658:	e00a      	b.n	8000670 <HAL_GPIO_Init+0x240>
 800065a:	2305      	movs	r3, #5
 800065c:	e008      	b.n	8000670 <HAL_GPIO_Init+0x240>
 800065e:	2304      	movs	r3, #4
 8000660:	e006      	b.n	8000670 <HAL_GPIO_Init+0x240>
 8000662:	2303      	movs	r3, #3
 8000664:	e004      	b.n	8000670 <HAL_GPIO_Init+0x240>
 8000666:	2302      	movs	r3, #2
 8000668:	e002      	b.n	8000670 <HAL_GPIO_Init+0x240>
 800066a:	2301      	movs	r3, #1
 800066c:	e000      	b.n	8000670 <HAL_GPIO_Init+0x240>
 800066e:	2300      	movs	r3, #0
 8000670:	69fa      	ldr	r2, [r7, #28]
 8000672:	f002 0203 	and.w	r2, r2, #3
 8000676:	0092      	lsls	r2, r2, #2
 8000678:	4093      	lsls	r3, r2
 800067a:	69ba      	ldr	r2, [r7, #24]
 800067c:	4313      	orrs	r3, r2
 800067e:	61bb      	str	r3, [r7, #24]
        SYSCFG->EXTICR[position >> 2] = temp;
 8000680:	4934      	ldr	r1, [pc, #208]	; (8000754 <HAL_GPIO_Init+0x324>)
 8000682:	69fb      	ldr	r3, [r7, #28]
 8000684:	089b      	lsrs	r3, r3, #2
 8000686:	3302      	adds	r3, #2
 8000688:	69ba      	ldr	r2, [r7, #24]
 800068a:	f841 2023 	str.w	r2, [r1, r3, lsl #2]

        /* Clear EXTI line configuration */
        temp = EXTI->IMR;
 800068e:	4b3c      	ldr	r3, [pc, #240]	; (8000780 <HAL_GPIO_Init+0x350>)
 8000690:	681b      	ldr	r3, [r3, #0]
 8000692:	61bb      	str	r3, [r7, #24]
        temp &= ~((uint32_t)iocurrent);
 8000694:	693b      	ldr	r3, [r7, #16]
 8000696:	43db      	mvns	r3, r3
 8000698:	69ba      	ldr	r2, [r7, #24]
 800069a:	4013      	ands	r3, r2
 800069c:	61bb      	str	r3, [r7, #24]
        if((GPIO_Init->Mode & GPIO_MODE_IT) == GPIO_MODE_IT)
 800069e:	683b      	ldr	r3, [r7, #0]
 80006a0:	685b      	ldr	r3, [r3, #4]
 80006a2:	f403 3380 	and.w	r3, r3, #65536	; 0x10000
 80006a6:	2b00      	cmp	r3, #0
 80006a8:	d003      	beq.n	80006b2 <HAL_GPIO_Init+0x282>
        {
          temp |= iocurrent;
 80006aa:	69ba      	ldr	r2, [r7, #24]
 80006ac:	693b      	ldr	r3, [r7, #16]
 80006ae:	4313      	orrs	r3, r2
 80006b0:	61bb      	str	r3, [r7, #24]
        }
        EXTI->IMR = temp;
 80006b2:	4a33      	ldr	r2, [pc, #204]	; (8000780 <HAL_GPIO_Init+0x350>)
 80006b4:	69bb      	ldr	r3, [r7, #24]
 80006b6:	6013      	str	r3, [r2, #0]

        temp = EXTI->EMR;
 80006b8:	4b31      	ldr	r3, [pc, #196]	; (8000780 <HAL_GPIO_Init+0x350>)
 80006ba:	685b      	ldr	r3, [r3, #4]
 80006bc:	61bb      	str	r3, [r7, #24]
        temp &= ~((uint32_t)iocurrent);
 80006be:	693b      	ldr	r3, [r7, #16]
 80006c0:	43db      	mvns	r3, r3
 80006c2:	69ba      	ldr	r2, [r7, #24]
 80006c4:	4013      	ands	r3, r2
 80006c6:	61bb      	str	r3, [r7, #24]
        if((GPIO_Init->Mode & GPIO_MODE_EVT) == GPIO_MODE_EVT)
 80006c8:	683b      	ldr	r3, [r7, #0]
 80006ca:	685b      	ldr	r3, [r3, #4]
 80006cc:	f403 3300 	and.w	r3, r3, #131072	; 0x20000
 80006d0:	2b00      	cmp	r3, #0
 80006d2:	d003      	beq.n	80006dc <HAL_GPIO_Init+0x2ac>
        {
          temp |= iocurrent;
 80006d4:	69ba      	ldr	r2, [r7, #24]
 80006d6:	693b      	ldr	r3, [r7, #16]
 80006d8:	4313      	orrs	r3, r2
 80006da:	61bb      	str	r3, [r7, #24]
        }
        EXTI->EMR = temp;
 80006dc:	4a28      	ldr	r2, [pc, #160]	; (8000780 <HAL_GPIO_Init+0x350>)
 80006de:	69bb      	ldr	r3, [r7, #24]
 80006e0:	6053      	str	r3, [r2, #4]

        /* Clear Rising Falling edge configuration */
        temp = EXTI->RTSR;
 80006e2:	4b27      	ldr	r3, [pc, #156]	; (8000780 <HAL_GPIO_Init+0x350>)
 80006e4:	689b      	ldr	r3, [r3, #8]
 80006e6:	61bb      	str	r3, [r7, #24]
        temp &= ~((uint32_t)iocurrent);
 80006e8:	693b      	ldr	r3, [r7, #16]
 80006ea:	43db      	mvns	r3, r3
 80006ec:	69ba      	ldr	r2, [r7, #24]
 80006ee:	4013      	ands	r3, r2
 80006f0:	61bb      	str	r3, [r7, #24]
        if((GPIO_Init->Mode & RISING_EDGE) == RISING_EDGE)
 80006f2:	683b      	ldr	r3, [r7, #0]
 80006f4:	685b      	ldr	r3, [r3, #4]
 80006f6:	f403 1380 	and.w	r3, r3, #1048576	; 0x100000
 80006fa:	2b00      	cmp	r3, #0
 80006fc:	d003      	beq.n	8000706 <HAL_GPIO_Init+0x2d6>
        {
          temp |= iocurrent;
 80006fe:	69ba      	ldr	r2, [r7, #24]
 8000700:	693b      	ldr	r3, [r7, #16]
 8000702:	4313      	orrs	r3, r2
 8000704:	61bb      	str	r3, [r7, #24]
        }
        EXTI->RTSR = temp;
 8000706:	4a1e      	ldr	r2, [pc, #120]	; (8000780 <HAL_GPIO_Init+0x350>)
 8000708:	69bb      	ldr	r3, [r7, #24]
 800070a:	6093      	str	r3, [r2, #8]

        temp = EXTI->FTSR;
 800070c:	4b1c      	ldr	r3, [pc, #112]	; (8000780 <HAL_GPIO_Init+0x350>)
 800070e:	68db      	ldr	r3, [r3, #12]
 8000710:	61bb      	str	r3, [r7, #24]
        temp &= ~((uint32_t)iocurrent);
 8000712:	693b      	ldr	r3, [r7, #16]
 8000714:	43db      	mvns	r3, r3
 8000716:	69ba      	ldr	r2, [r7, #24]
 8000718:	4013      	ands	r3, r2
 800071a:	61bb      	str	r3, [r7, #24]
        if((GPIO_Init->Mode & FALLING_EDGE) == FALLING_EDGE)
 800071c:	683b      	ldr	r3, [r7, #0]
 800071e:	685b      	ldr	r3, [r3, #4]
 8000720:	f403 1300 	and.w	r3, r3, #2097152	; 0x200000
 8000724:	2b00      	cmp	r3, #0
 8000726:	d003      	beq.n	8000730 <HAL_GPIO_Init+0x300>
        {
          temp |= iocurrent;
 8000728:	69ba      	ldr	r2, [r7, #24]
 800072a:	693b      	ldr	r3, [r7, #16]
 800072c:	4313      	orrs	r3, r2
 800072e:	61bb      	str	r3, [r7, #24]
        }
        EXTI->FTSR = temp;
 8000730:	4a13      	ldr	r2, [pc, #76]	; (8000780 <HAL_GPIO_Init+0x350>)
 8000732:	69bb      	ldr	r3, [r7, #24]
 8000734:	60d3      	str	r3, [r2, #12]
  for(position = 0; position < GPIO_NUMBER; position++)
 8000736:	69fb      	ldr	r3, [r7, #28]
 8000738:	3301      	adds	r3, #1
 800073a:	61fb      	str	r3, [r7, #28]
 800073c:	69fb      	ldr	r3, [r7, #28]
 800073e:	2b0f      	cmp	r3, #15
 8000740:	f67f ae86 	bls.w	8000450 <HAL_GPIO_Init+0x20>
      }
    }
  }
}
 8000744:	bf00      	nop
 8000746:	3724      	adds	r7, #36	; 0x24
 8000748:	46bd      	mov	sp, r7
 800074a:	f85d 7b04 	ldr.w	r7, [sp], #4
 800074e:	4770      	bx	lr
 8000750:	40023800 	.word	0x40023800
 8000754:	40013800 	.word	0x40013800
 8000758:	40020000 	.word	0x40020000
 800075c:	40020400 	.word	0x40020400
 8000760:	40020800 	.word	0x40020800
 8000764:	40020c00 	.word	0x40020c00
 8000768:	40021000 	.word	0x40021000
 800076c:	40021400 	.word	0x40021400
 8000770:	40021800 	.word	0x40021800
 8000774:	40021c00 	.word	0x40021c00
 8000778:	40022000 	.word	0x40022000
 800077c:	40022400 	.word	0x40022400
 8000780:	40013c00 	.word	0x40013c00

08000784 <HAL_PCD_Init>:
  *         parameters in the PCD_InitTypeDef and create the associated handle.
  * @param  hpcd PCD handle
  * @retval HAL status
  */
HAL_StatusTypeDef HAL_PCD_Init(PCD_HandleTypeDef *hpcd)
{
 8000784:	b5f0      	push	{r4, r5, r6, r7, lr}
 8000786:	b08f      	sub	sp, #60	; 0x3c
 8000788:	af0a      	add	r7, sp, #40	; 0x28
 800078a:	6078      	str	r0, [r7, #4]
  uint32_t i = 0;
 800078c:	2300      	movs	r3, #0
 800078e:	60fb      	str	r3, [r7, #12]

  /* Check the PCD handle allocation */
  if(hpcd == NULL)
 8000790:	687b      	ldr	r3, [r7, #4]
 8000792:	2b00      	cmp	r3, #0
 8000794:	d101      	bne.n	800079a <HAL_PCD_Init+0x16>
  {
    return HAL_ERROR;
 8000796:	2301      	movs	r3, #1
 8000798:	e0fe      	b.n	8000998 <HAL_PCD_Init+0x214>
  }

  /* Check the parameters */
  assert_param(IS_PCD_ALL_INSTANCE(hpcd->Instance));

  hpcd->State = HAL_PCD_STATE_BUSY;
 800079a:	687b      	ldr	r3, [r7, #4]
 800079c:	2203      	movs	r2, #3
 800079e:	f883 23b9 	strb.w	r2, [r3, #953]	; 0x3b9

  /* Init the low level hardware : GPIO, CLOCK, NVIC... */
  HAL_PCD_MspInit(hpcd);
 80007a2:	6878      	ldr	r0, [r7, #4]
 80007a4:	f001 ff28 	bl	80025f8 <HAL_PCD_MspInit>

  /* Disable the Interrupts */
 __HAL_PCD_DISABLE(hpcd);
 80007a8:	687b      	ldr	r3, [r7, #4]
 80007aa:	681b      	ldr	r3, [r3, #0]
 80007ac:	4618      	mov	r0, r3
 80007ae:	f000 fb5a 	bl	8000e66 <USB_DisableGlobalInt>

 /*Init the Core (common init.) */
 USB_CoreInit(hpcd->Instance, hpcd->Init);
 80007b2:	687b      	ldr	r3, [r7, #4]
 80007b4:	681b      	ldr	r3, [r3, #0]
 80007b6:	603b      	str	r3, [r7, #0]
 80007b8:	687e      	ldr	r6, [r7, #4]
 80007ba:	466d      	mov	r5, sp
 80007bc:	f106 0410 	add.w	r4, r6, #16
 80007c0:	cc0f      	ldmia	r4!, {r0, r1, r2, r3}
 80007c2:	c50f      	stmia	r5!, {r0, r1, r2, r3}
 80007c4:	cc0f      	ldmia	r4!, {r0, r1, r2, r3}
 80007c6:	c50f      	stmia	r5!, {r0, r1, r2, r3}
 80007c8:	e894 0003 	ldmia.w	r4, {r0, r1}
 80007cc:	e885 0003 	stmia.w	r5, {r0, r1}
 80007d0:	1d33      	adds	r3, r6, #4
 80007d2:	cb0e      	ldmia	r3, {r1, r2, r3}
 80007d4:	6838      	ldr	r0, [r7, #0]
 80007d6:	f000 fae3 	bl	8000da0 <USB_CoreInit>

 /* Force Device Mode*/
 USB_SetCurrentMode(hpcd->Instance , USB_OTG_DEVICE_MODE);
 80007da:	687b      	ldr	r3, [r7, #4]
 80007dc:	681b      	ldr	r3, [r3, #0]
 80007de:	2100      	movs	r1, #0
 80007e0:	4618      	mov	r0, r3
 80007e2:	f000 fb51 	bl	8000e88 <USB_SetCurrentMode>

 /* Init endpoints structures */
 for (i = 0; i < 15 ; i++)
 80007e6:	2300      	movs	r3, #0
 80007e8:	60fb      	str	r3, [r7, #12]
 80007ea:	e04c      	b.n	8000886 <HAL_PCD_Init+0x102>
 {
   /* Init ep structure */
   hpcd->IN_ep[i].is_in = 1;
 80007ec:	6879      	ldr	r1, [r7, #4]
 80007ee:	68fa      	ldr	r2, [r7, #12]
 80007f0:	4613      	mov	r3, r2
 80007f2:	00db      	lsls	r3, r3, #3
 80007f4:	1a9b      	subs	r3, r3, r2
 80007f6:	009b      	lsls	r3, r3, #2
 80007f8:	440b      	add	r3, r1
 80007fa:	3339      	adds	r3, #57	; 0x39
 80007fc:	2201      	movs	r2, #1
 80007fe:	701a      	strb	r2, [r3, #0]
   hpcd->IN_ep[i].num = i;
 8000800:	68fb      	ldr	r3, [r7, #12]
 8000802:	b2d8      	uxtb	r0, r3
 8000804:	6879      	ldr	r1, [r7, #4]
 8000806:	68fa      	ldr	r2, [r7, #12]
 8000808:	4613      	mov	r3, r2
 800080a:	00db      	lsls	r3, r3, #3
 800080c:	1a9b      	subs	r3, r3, r2
 800080e:	009b      	lsls	r3, r3, #2
 8000810:	440b      	add	r3, r1
 8000812:	3338      	adds	r3, #56	; 0x38
 8000814:	4602      	mov	r2, r0
 8000816:	701a      	strb	r2, [r3, #0]
   hpcd->IN_ep[i].tx_fifo_num = i;
 8000818:	68fb      	ldr	r3, [r7, #12]
 800081a:	b298      	uxth	r0, r3
 800081c:	6879      	ldr	r1, [r7, #4]
 800081e:	68fa      	ldr	r2, [r7, #12]
 8000820:	4613      	mov	r3, r2
 8000822:	00db      	lsls	r3, r3, #3
 8000824:	1a9b      	subs	r3, r3, r2
 8000826:	009b      	lsls	r3, r3, #2
 8000828:	440b      	add	r3, r1
 800082a:	333e      	adds	r3, #62	; 0x3e
 800082c:	4602      	mov	r2, r0
 800082e:	801a      	strh	r2, [r3, #0]
   /* Control until ep is activated */
   hpcd->IN_ep[i].type = EP_TYPE_CTRL;
 8000830:	6879      	ldr	r1, [r7, #4]
 8000832:	68fa      	ldr	r2, [r7, #12]
 8000834:	4613      	mov	r3, r2
 8000836:	00db      	lsls	r3, r3, #3
 8000838:	1a9b      	subs	r3, r3, r2
 800083a:	009b      	lsls	r3, r3, #2
 800083c:	440b      	add	r3, r1
 800083e:	333b      	adds	r3, #59	; 0x3b
 8000840:	2200      	movs	r2, #0
 8000842:	701a      	strb	r2, [r3, #0]
   hpcd->IN_ep[i].maxpacket =  0;
 8000844:	6879      	ldr	r1, [r7, #4]
 8000846:	68fa      	ldr	r2, [r7, #12]
 8000848:	4613      	mov	r3, r2
 800084a:	00db      	lsls	r3, r3, #3
 800084c:	1a9b      	subs	r3, r3, r2
 800084e:	009b      	lsls	r3, r3, #2
 8000850:	440b      	add	r3, r1
 8000852:	3340      	adds	r3, #64	; 0x40
 8000854:	2200      	movs	r2, #0
 8000856:	601a      	str	r2, [r3, #0]
   hpcd->IN_ep[i].xfer_buff = 0;
 8000858:	6879      	ldr	r1, [r7, #4]
 800085a:	68fa      	ldr	r2, [r7, #12]
 800085c:	4613      	mov	r3, r2
 800085e:	00db      	lsls	r3, r3, #3
 8000860:	1a9b      	subs	r3, r3, r2
 8000862:	009b      	lsls	r3, r3, #2
 8000864:	440b      	add	r3, r1
 8000866:	3344      	adds	r3, #68	; 0x44
 8000868:	2200      	movs	r2, #0
 800086a:	601a      	str	r2, [r3, #0]
   hpcd->IN_ep[i].xfer_len = 0;
 800086c:	6879      	ldr	r1, [r7, #4]
 800086e:	68fa      	ldr	r2, [r7, #12]
 8000870:	4613      	mov	r3, r2
 8000872:	00db      	lsls	r3, r3, #3
 8000874:	1a9b      	subs	r3, r3, r2
 8000876:	009b      	lsls	r3, r3, #2
 8000878:	440b      	add	r3, r1
 800087a:	334c      	adds	r3, #76	; 0x4c
 800087c:	2200      	movs	r2, #0
 800087e:	601a      	str	r2, [r3, #0]
 for (i = 0; i < 15 ; i++)
 8000880:	68fb      	ldr	r3, [r7, #12]
 8000882:	3301      	adds	r3, #1
 8000884:	60fb      	str	r3, [r7, #12]
 8000886:	68fb      	ldr	r3, [r7, #12]
 8000888:	2b0e      	cmp	r3, #14
 800088a:	d9af      	bls.n	80007ec <HAL_PCD_Init+0x68>
 }

 for (i = 0; i < 15 ; i++)
 800088c:	2300      	movs	r3, #0
 800088e:	60fb      	str	r3, [r7, #12]
 8000890:	e05a      	b.n	8000948 <HAL_PCD_Init+0x1c4>
 {
   hpcd->OUT_ep[i].is_in = 0;
 8000892:	6879      	ldr	r1, [r7, #4]
 8000894:	68fa      	ldr	r2, [r7, #12]
 8000896:	4613      	mov	r3, r2
 8000898:	00db      	lsls	r3, r3, #3
 800089a:	1a9b      	subs	r3, r3, r2
 800089c:	009b      	lsls	r3, r3, #2
 800089e:	440b      	add	r3, r1
 80008a0:	f203 13f9 	addw	r3, r3, #505	; 0x1f9
 80008a4:	2200      	movs	r2, #0
 80008a6:	701a      	strb	r2, [r3, #0]
   hpcd->OUT_ep[i].num = i;
 80008a8:	68fb      	ldr	r3, [r7, #12]
 80008aa:	b2d8      	uxtb	r0, r3
 80008ac:	6879      	ldr	r1, [r7, #4]
 80008ae:	68fa      	ldr	r2, [r7, #12]
 80008b0:	4613      	mov	r3, r2
 80008b2:	00db      	lsls	r3, r3, #3
 80008b4:	1a9b      	subs	r3, r3, r2
 80008b6:	009b      	lsls	r3, r3, #2
 80008b8:	440b      	add	r3, r1
 80008ba:	f503 73fc 	add.w	r3, r3, #504	; 0x1f8
 80008be:	4602      	mov	r2, r0
 80008c0:	701a      	strb	r2, [r3, #0]
   hpcd->IN_ep[i].tx_fifo_num = i;
 80008c2:	68fb      	ldr	r3, [r7, #12]
 80008c4:	b298      	uxth	r0, r3
 80008c6:	6879      	ldr	r1, [r7, #4]
 80008c8:	68fa      	ldr	r2, [r7, #12]
 80008ca:	4613      	mov	r3, r2
 80008cc:	00db      	lsls	r3, r3, #3
 80008ce:	1a9b      	subs	r3, r3, r2
 80008d0:	009b      	lsls	r3, r3, #2
 80008d2:	440b      	add	r3, r1
 80008d4:	333e      	adds	r3, #62	; 0x3e
 80008d6:	4602      	mov	r2, r0
 80008d8:	801a      	strh	r2, [r3, #0]
   /* Control until ep is activated */
   hpcd->OUT_ep[i].type = EP_TYPE_CTRL;
 80008da:	6879      	ldr	r1, [r7, #4]
 80008dc:	68fa      	ldr	r2, [r7, #12]
 80008de:	4613      	mov	r3, r2
 80008e0:	00db      	lsls	r3, r3, #3
 80008e2:	1a9b      	subs	r3, r3, r2
 80008e4:	009b      	lsls	r3, r3, #2
 80008e6:	440b      	add	r3, r1
 80008e8:	f203 13fb 	addw	r3, r3, #507	; 0x1fb
 80008ec:	2200      	movs	r2, #0
 80008ee:	701a      	strb	r2, [r3, #0]
   hpcd->OUT_ep[i].maxpacket = 0;
 80008f0:	6879      	ldr	r1, [r7, #4]
 80008f2:	68fa      	ldr	r2, [r7, #12]
 80008f4:	4613      	mov	r3, r2
 80008f6:	00db      	lsls	r3, r3, #3
 80008f8:	1a9b      	subs	r3, r3, r2
 80008fa:	009b      	lsls	r3, r3, #2
 80008fc:	440b      	add	r3, r1
 80008fe:	f503 7300 	add.w	r3, r3, #512	; 0x200
 8000902:	2200      	movs	r2, #0
 8000904:	601a      	str	r2, [r3, #0]
   hpcd->OUT_ep[i].xfer_buff = 0;
 8000906:	6879      	ldr	r1, [r7, #4]
 8000908:	68fa      	ldr	r2, [r7, #12]
 800090a:	4613      	mov	r3, r2
 800090c:	00db      	lsls	r3, r3, #3
 800090e:	1a9b      	subs	r3, r3, r2
 8000910:	009b      	lsls	r3, r3, #2
 8000912:	440b      	add	r3, r1
 8000914:	f503 7301 	add.w	r3, r3, #516	; 0x204
 8000918:	2200      	movs	r2, #0
 800091a:	601a      	str	r2, [r3, #0]
   hpcd->OUT_ep[i].xfer_len = 0;
 800091c:	6879      	ldr	r1, [r7, #4]
 800091e:	68fa      	ldr	r2, [r7, #12]
 8000920:	4613      	mov	r3, r2
 8000922:	00db      	lsls	r3, r3, #3
 8000924:	1a9b      	subs	r3, r3, r2
 8000926:	009b      	lsls	r3, r3, #2
 8000928:	440b      	add	r3, r1
 800092a:	f503 7303 	add.w	r3, r3, #524	; 0x20c
 800092e:	2200      	movs	r2, #0
 8000930:	601a      	str	r2, [r3, #0]

   hpcd->Instance->DIEPTXF[i] = 0;
 8000932:	687b      	ldr	r3, [r7, #4]
 8000934:	681a      	ldr	r2, [r3, #0]
 8000936:	68fb      	ldr	r3, [r7, #12]
 8000938:	3340      	adds	r3, #64	; 0x40
 800093a:	009b      	lsls	r3, r3, #2
 800093c:	4413      	add	r3, r2
 800093e:	2200      	movs	r2, #0
 8000940:	605a      	str	r2, [r3, #4]
 for (i = 0; i < 15 ; i++)
 8000942:	68fb      	ldr	r3, [r7, #12]
 8000944:	3301      	adds	r3, #1
 8000946:	60fb      	str	r3, [r7, #12]
 8000948:	68fb      	ldr	r3, [r7, #12]
 800094a:	2b0e      	cmp	r3, #14
 800094c:	d9a1      	bls.n	8000892 <HAL_PCD_Init+0x10e>
 }

 /* Init Device */
 USB_DevInit(hpcd->Instance, hpcd->Init);
 800094e:	687b      	ldr	r3, [r7, #4]
 8000950:	681b      	ldr	r3, [r3, #0]
 8000952:	603b      	str	r3, [r7, #0]
 8000954:	687e      	ldr	r6, [r7, #4]
 8000956:	466d      	mov	r5, sp
 8000958:	f106 0410 	add.w	r4, r6, #16
 800095c:	cc0f      	ldmia	r4!, {r0, r1, r2, r3}
 800095e:	c50f      	stmia	r5!, {r0, r1, r2, r3}
 8000960:	cc0f      	ldmia	r4!, {r0, r1, r2, r3}
 8000962:	c50f      	stmia	r5!, {r0, r1, r2, r3}
 8000964:	e894 0003 	ldmia.w	r4, {r0, r1}
 8000968:	e885 0003 	stmia.w	r5, {r0, r1}
 800096c:	1d33      	adds	r3, r6, #4
 800096e:	cb0e      	ldmia	r3, {r1, r2, r3}
 8000970:	6838      	ldr	r0, [r7, #0]
 8000972:	f000 fab1 	bl	8000ed8 <USB_DevInit>

 hpcd->State= HAL_PCD_STATE_READY;
 8000976:	687b      	ldr	r3, [r7, #4]
 8000978:	2201      	movs	r2, #1
 800097a:	f883 23b9 	strb.w	r2, [r3, #953]	; 0x3b9

 /* Activate LPM */
 if (hpcd->Init.lpm_enable ==1)
 800097e:	687b      	ldr	r3, [r7, #4]
 8000980:	6a5b      	ldr	r3, [r3, #36]	; 0x24
 8000982:	2b01      	cmp	r3, #1
 8000984:	d102      	bne.n	800098c <HAL_PCD_Init+0x208>
 {
   HAL_PCDEx_ActivateLPM(hpcd);
 8000986:	6878      	ldr	r0, [r7, #4]
 8000988:	f000 f9e6 	bl	8000d58 <HAL_PCDEx_ActivateLPM>
 {
   HAL_PCDEx_ActivateBCD(hpcd);
 }
#endif /* USB_OTG_GCCFG_BCDEN */

 USB_DevDisconnect (hpcd->Instance);
 800098c:	687b      	ldr	r3, [r7, #4]
 800098e:	681b      	ldr	r3, [r3, #0]
 8000990:	4618      	mov	r0, r3
 8000992:	f001 f942 	bl	8001c1a <USB_DevDisconnect>
 return HAL_OK;
 8000996:	2300      	movs	r3, #0
}
 8000998:	4618      	mov	r0, r3
 800099a:	3714      	adds	r7, #20
 800099c:	46bd      	mov	sp, r7
 800099e:	bdf0      	pop	{r4, r5, r6, r7, pc}

080009a0 <HAL_PCD_Start>:
  * @brief  Start The USB OTG Device.
  * @param  hpcd PCD handle
  * @retval HAL status
  */
HAL_StatusTypeDef HAL_PCD_Start(PCD_HandleTypeDef *hpcd)
{
 80009a0:	b580      	push	{r7, lr}
 80009a2:	b082      	sub	sp, #8
 80009a4:	af00      	add	r7, sp, #0
 80009a6:	6078      	str	r0, [r7, #4]
  __HAL_LOCK(hpcd);
 80009a8:	687b      	ldr	r3, [r7, #4]
 80009aa:	f893 33b8 	ldrb.w	r3, [r3, #952]	; 0x3b8
 80009ae:	2b01      	cmp	r3, #1
 80009b0:	d101      	bne.n	80009b6 <HAL_PCD_Start+0x16>
 80009b2:	2302      	movs	r3, #2
 80009b4:	e012      	b.n	80009dc <HAL_PCD_Start+0x3c>
 80009b6:	687b      	ldr	r3, [r7, #4]
 80009b8:	2201      	movs	r2, #1
 80009ba:	f883 23b8 	strb.w	r2, [r3, #952]	; 0x3b8
  USB_DevConnect (hpcd->Instance);
 80009be:	687b      	ldr	r3, [r7, #4]
 80009c0:	681b      	ldr	r3, [r3, #0]
 80009c2:	4618      	mov	r0, r3
 80009c4:	f001 f912 	bl	8001bec <USB_DevConnect>
  __HAL_PCD_ENABLE(hpcd);
 80009c8:	687b      	ldr	r3, [r7, #4]
 80009ca:	681b      	ldr	r3, [r3, #0]
 80009cc:	4618      	mov	r0, r3
 80009ce:	f000 fa39 	bl	8000e44 <USB_EnableGlobalInt>
  __HAL_UNLOCK(hpcd);
 80009d2:	687b      	ldr	r3, [r7, #4]
 80009d4:	2200      	movs	r2, #0
 80009d6:	f883 23b8 	strb.w	r2, [r3, #952]	; 0x3b8
  return HAL_OK;
 80009da:	2300      	movs	r3, #0
}
 80009dc:	4618      	mov	r0, r3
 80009de:	3708      	adds	r7, #8
 80009e0:	46bd      	mov	sp, r7
 80009e2:	bd80      	pop	{r7, pc}

080009e4 <HAL_PCD_EP_Open>:
  * @param  ep_mps endpoint max packet size
  * @param  ep_type endpoint type
  * @retval HAL status
  */
HAL_StatusTypeDef HAL_PCD_EP_Open(PCD_HandleTypeDef *hpcd, uint8_t ep_addr, uint16_t ep_mps, uint8_t ep_type)
{
 80009e4:	b580      	push	{r7, lr}
 80009e6:	b084      	sub	sp, #16
 80009e8:	af00      	add	r7, sp, #0
 80009ea:	6078      	str	r0, [r7, #4]
 80009ec:	4608      	mov	r0, r1
 80009ee:	4611      	mov	r1, r2
 80009f0:	461a      	mov	r2, r3
 80009f2:	4603      	mov	r3, r0
 80009f4:	70fb      	strb	r3, [r7, #3]
 80009f6:	460b      	mov	r3, r1
 80009f8:	803b      	strh	r3, [r7, #0]
 80009fa:	4613      	mov	r3, r2
 80009fc:	70bb      	strb	r3, [r7, #2]
  HAL_StatusTypeDef  ret = HAL_OK;
 80009fe:	2300      	movs	r3, #0
 8000a00:	72fb      	strb	r3, [r7, #11]
  USB_OTG_EPTypeDef *ep;

  if ((ep_addr & 0x80) == 0x80)
 8000a02:	f997 3003 	ldrsb.w	r3, [r7, #3]
 8000a06:	2b00      	cmp	r3, #0
 8000a08:	da0b      	bge.n	8000a22 <HAL_PCD_EP_Open+0x3e>
  {
    ep = &hpcd->IN_ep[ep_addr & 0x7F];
 8000a0a:	78fb      	ldrb	r3, [r7, #3]
 8000a0c:	f003 027f 	and.w	r2, r3, #127	; 0x7f
 8000a10:	4613      	mov	r3, r2
 8000a12:	00db      	lsls	r3, r3, #3
 8000a14:	1a9b      	subs	r3, r3, r2
 8000a16:	009b      	lsls	r3, r3, #2
 8000a18:	3338      	adds	r3, #56	; 0x38
 8000a1a:	687a      	ldr	r2, [r7, #4]
 8000a1c:	4413      	add	r3, r2
 8000a1e:	60fb      	str	r3, [r7, #12]
 8000a20:	e00b      	b.n	8000a3a <HAL_PCD_EP_Open+0x56>
  }
  else
  {
    ep = &hpcd->OUT_ep[ep_addr & 0x7F];
 8000a22:	78fb      	ldrb	r3, [r7, #3]
 8000a24:	f003 027f 	and.w	r2, r3, #127	; 0x7f
 8000a28:	4613      	mov	r3, r2
 8000a2a:	00db      	lsls	r3, r3, #3
 8000a2c:	1a9b      	subs	r3, r3, r2
 8000a2e:	009b      	lsls	r3, r3, #2
 8000a30:	f503 73fc 	add.w	r3, r3, #504	; 0x1f8
 8000a34:	687a      	ldr	r2, [r7, #4]
 8000a36:	4413      	add	r3, r2
 8000a38:	60fb      	str	r3, [r7, #12]
  }
  ep->num   = ep_addr & 0x7F;
 8000a3a:	78fb      	ldrb	r3, [r7, #3]
 8000a3c:	f003 037f 	and.w	r3, r3, #127	; 0x7f
 8000a40:	b2da      	uxtb	r2, r3
 8000a42:	68fb      	ldr	r3, [r7, #12]
 8000a44:	701a      	strb	r2, [r3, #0]

  ep->is_in = (0x80 & ep_addr) != 0;
 8000a46:	f997 3003 	ldrsb.w	r3, [r7, #3]
 8000a4a:	b2db      	uxtb	r3, r3
 8000a4c:	09db      	lsrs	r3, r3, #7
 8000a4e:	b2db      	uxtb	r3, r3
 8000a50:	461a      	mov	r2, r3
 8000a52:	68fb      	ldr	r3, [r7, #12]
 8000a54:	705a      	strb	r2, [r3, #1]
  ep->maxpacket = ep_mps;
 8000a56:	883a      	ldrh	r2, [r7, #0]
 8000a58:	68fb      	ldr	r3, [r7, #12]
 8000a5a:	609a      	str	r2, [r3, #8]
  ep->type = ep_type;
 8000a5c:	68fb      	ldr	r3, [r7, #12]
 8000a5e:	78ba      	ldrb	r2, [r7, #2]
 8000a60:	70da      	strb	r2, [r3, #3]
  if (ep->is_in)
 8000a62:	68fb      	ldr	r3, [r7, #12]
 8000a64:	785b      	ldrb	r3, [r3, #1]
 8000a66:	2b00      	cmp	r3, #0
 8000a68:	d004      	beq.n	8000a74 <HAL_PCD_EP_Open+0x90>
  {
    /* Assign a Tx FIFO */
    ep->tx_fifo_num = ep->num;
 8000a6a:	68fb      	ldr	r3, [r7, #12]
 8000a6c:	781b      	ldrb	r3, [r3, #0]
 8000a6e:	b29a      	uxth	r2, r3
 8000a70:	68fb      	ldr	r3, [r7, #12]
 8000a72:	80da      	strh	r2, [r3, #6]
  }
  /* Set initial data PID. */
  if (ep_type == EP_TYPE_BULK )
 8000a74:	78bb      	ldrb	r3, [r7, #2]
 8000a76:	2b02      	cmp	r3, #2
 8000a78:	d102      	bne.n	8000a80 <HAL_PCD_EP_Open+0x9c>
  {
    ep->data_pid_start = 0;
 8000a7a:	68fb      	ldr	r3, [r7, #12]
 8000a7c:	2200      	movs	r2, #0
 8000a7e:	711a      	strb	r2, [r3, #4]
  }

  __HAL_LOCK(hpcd);
 8000a80:	687b      	ldr	r3, [r7, #4]
 8000a82:	f893 33b8 	ldrb.w	r3, [r3, #952]	; 0x3b8
 8000a86:	2b01      	cmp	r3, #1
 8000a88:	d101      	bne.n	8000a8e <HAL_PCD_EP_Open+0xaa>
 8000a8a:	2302      	movs	r3, #2
 8000a8c:	e00e      	b.n	8000aac <HAL_PCD_EP_Open+0xc8>
 8000a8e:	687b      	ldr	r3, [r7, #4]
 8000a90:	2201      	movs	r2, #1
 8000a92:	f883 23b8 	strb.w	r2, [r3, #952]	; 0x3b8
  USB_ActivateEndpoint(hpcd->Instance , ep);
 8000a96:	687b      	ldr	r3, [r7, #4]
 8000a98:	681b      	ldr	r3, [r3, #0]
 8000a9a:	68f9      	ldr	r1, [r7, #12]
 8000a9c:	4618      	mov	r0, r3
 8000a9e:	f000 fbc9 	bl	8001234 <USB_ActivateEndpoint>
  __HAL_UNLOCK(hpcd);
 8000aa2:	687b      	ldr	r3, [r7, #4]
 8000aa4:	2200      	movs	r2, #0
 8000aa6:	f883 23b8 	strb.w	r2, [r3, #952]	; 0x3b8
  return ret;
 8000aaa:	7afb      	ldrb	r3, [r7, #11]
}
 8000aac:	4618      	mov	r0, r3
 8000aae:	3710      	adds	r7, #16
 8000ab0:	46bd      	mov	sp, r7
 8000ab2:	bd80      	pop	{r7, pc}

08000ab4 <HAL_PCD_EP_Close>:
  * @param  hpcd PCD handle
  * @param  ep_addr endpoint address
  * @retval HAL status
  */
HAL_StatusTypeDef HAL_PCD_EP_Close(PCD_HandleTypeDef *hpcd, uint8_t ep_addr)
{
 8000ab4:	b580      	push	{r7, lr}
 8000ab6:	b084      	sub	sp, #16
 8000ab8:	af00      	add	r7, sp, #0
 8000aba:	6078      	str	r0, [r7, #4]
 8000abc:	460b      	mov	r3, r1
 8000abe:	70fb      	strb	r3, [r7, #3]
  USB_OTG_EPTypeDef *ep;

  if ((ep_addr & 0x80) == 0x80)
 8000ac0:	f997 3003 	ldrsb.w	r3, [r7, #3]
 8000ac4:	2b00      	cmp	r3, #0
 8000ac6:	da0b      	bge.n	8000ae0 <HAL_PCD_EP_Close+0x2c>
  {
    ep = &hpcd->IN_ep[ep_addr & 0x7F];
 8000ac8:	78fb      	ldrb	r3, [r7, #3]
 8000aca:	f003 027f 	and.w	r2, r3, #127	; 0x7f
 8000ace:	4613      	mov	r3, r2
 8000ad0:	00db      	lsls	r3, r3, #3
 8000ad2:	1a9b      	subs	r3, r3, r2
 8000ad4:	009b      	lsls	r3, r3, #2
 8000ad6:	3338      	adds	r3, #56	; 0x38
 8000ad8:	687a      	ldr	r2, [r7, #4]
 8000ada:	4413      	add	r3, r2
 8000adc:	60fb      	str	r3, [r7, #12]
 8000ade:	e00b      	b.n	8000af8 <HAL_PCD_EP_Close+0x44>
  }
  else
  {
    ep = &hpcd->OUT_ep[ep_addr & 0x7F];
 8000ae0:	78fb      	ldrb	r3, [r7, #3]
 8000ae2:	f003 027f 	and.w	r2, r3, #127	; 0x7f
 8000ae6:	4613      	mov	r3, r2
 8000ae8:	00db      	lsls	r3, r3, #3
 8000aea:	1a9b      	subs	r3, r3, r2
 8000aec:	009b      	lsls	r3, r3, #2
 8000aee:	f503 73fc 	add.w	r3, r3, #504	; 0x1f8
 8000af2:	687a      	ldr	r2, [r7, #4]
 8000af4:	4413      	add	r3, r2
 8000af6:	60fb      	str	r3, [r7, #12]
  }
  ep->num   = ep_addr & 0x7F;
 8000af8:	78fb      	ldrb	r3, [r7, #3]
 8000afa:	f003 037f 	and.w	r3, r3, #127	; 0x7f
 8000afe:	b2da      	uxtb	r2, r3
 8000b00:	68fb      	ldr	r3, [r7, #12]
 8000b02:	701a      	strb	r2, [r3, #0]

  ep->is_in = (0x80 & ep_addr) != 0;
 8000b04:	f997 3003 	ldrsb.w	r3, [r7, #3]
 8000b08:	b2db      	uxtb	r3, r3
 8000b0a:	09db      	lsrs	r3, r3, #7
 8000b0c:	b2db      	uxtb	r3, r3
 8000b0e:	461a      	mov	r2, r3
 8000b10:	68fb      	ldr	r3, [r7, #12]
 8000b12:	705a      	strb	r2, [r3, #1]

  __HAL_LOCK(hpcd);
 8000b14:	687b      	ldr	r3, [r7, #4]
 8000b16:	f893 33b8 	ldrb.w	r3, [r3, #952]	; 0x3b8
 8000b1a:	2b01      	cmp	r3, #1
 8000b1c:	d101      	bne.n	8000b22 <HAL_PCD_EP_Close+0x6e>
 8000b1e:	2302      	movs	r3, #2
 8000b20:	e00e      	b.n	8000b40 <HAL_PCD_EP_Close+0x8c>
 8000b22:	687b      	ldr	r3, [r7, #4]
 8000b24:	2201      	movs	r2, #1
 8000b26:	f883 23b8 	strb.w	r2, [r3, #952]	; 0x3b8
  USB_DeactivateEndpoint(hpcd->Instance , ep);
 8000b2a:	687b      	ldr	r3, [r7, #4]
 8000b2c:	681b      	ldr	r3, [r3, #0]
 8000b2e:	68f9      	ldr	r1, [r7, #12]
 8000b30:	4618      	mov	r0, r3
 8000b32:	f000 fc07 	bl	8001344 <USB_DeactivateEndpoint>
  __HAL_UNLOCK(hpcd);
 8000b36:	687b      	ldr	r3, [r7, #4]
 8000b38:	2200      	movs	r2, #0
 8000b3a:	f883 23b8 	strb.w	r2, [r3, #952]	; 0x3b8
  return HAL_OK;
 8000b3e:	2300      	movs	r3, #0
}
 8000b40:	4618      	mov	r0, r3
 8000b42:	3710      	adds	r7, #16
 8000b44:	46bd      	mov	sp, r7
 8000b46:	bd80      	pop	{r7, pc}

08000b48 <HAL_PCD_EP_Receive>:
  * @param  pBuf pointer to the reception buffer
  * @param  len amount of data to be received
  * @retval HAL status
  */
HAL_StatusTypeDef HAL_PCD_EP_Receive(PCD_HandleTypeDef *hpcd, uint8_t ep_addr, uint8_t *pBuf, uint32_t len)
{
 8000b48:	b580      	push	{r7, lr}
 8000b4a:	b086      	sub	sp, #24
 8000b4c:	af00      	add	r7, sp, #0
 8000b4e:	60f8      	str	r0, [r7, #12]
 8000b50:	607a      	str	r2, [r7, #4]
 8000b52:	603b      	str	r3, [r7, #0]
 8000b54:	460b      	mov	r3, r1
 8000b56:	72fb      	strb	r3, [r7, #11]
  USB_OTG_EPTypeDef *ep;

  ep = &hpcd->OUT_ep[ep_addr & 0x7F];
 8000b58:	7afb      	ldrb	r3, [r7, #11]
 8000b5a:	f003 027f 	and.w	r2, r3, #127	; 0x7f
 8000b5e:	4613      	mov	r3, r2
 8000b60:	00db      	lsls	r3, r3, #3
 8000b62:	1a9b      	subs	r3, r3, r2
 8000b64:	009b      	lsls	r3, r3, #2
 8000b66:	f503 73fc 	add.w	r3, r3, #504	; 0x1f8
 8000b6a:	68fa      	ldr	r2, [r7, #12]
 8000b6c:	4413      	add	r3, r2
 8000b6e:	617b      	str	r3, [r7, #20]

  /*setup and start the Xfer */
  ep->xfer_buff = pBuf;
 8000b70:	697b      	ldr	r3, [r7, #20]
 8000b72:	687a      	ldr	r2, [r7, #4]
 8000b74:	60da      	str	r2, [r3, #12]
  ep->xfer_len = len;
 8000b76:	697b      	ldr	r3, [r7, #20]
 8000b78:	683a      	ldr	r2, [r7, #0]
 8000b7a:	615a      	str	r2, [r3, #20]
  ep->xfer_count = 0;
 8000b7c:	697b      	ldr	r3, [r7, #20]
 8000b7e:	2200      	movs	r2, #0
 8000b80:	619a      	str	r2, [r3, #24]
  ep->is_in = 0;
 8000b82:	697b      	ldr	r3, [r7, #20]
 8000b84:	2200      	movs	r2, #0
 8000b86:	705a      	strb	r2, [r3, #1]
  ep->num = ep_addr & 0x7F;
 8000b88:	7afb      	ldrb	r3, [r7, #11]
 8000b8a:	f003 037f 	and.w	r3, r3, #127	; 0x7f
 8000b8e:	b2da      	uxtb	r2, r3
 8000b90:	697b      	ldr	r3, [r7, #20]
 8000b92:	701a      	strb	r2, [r3, #0]

  if (hpcd->Init.dma_enable == 1)
 8000b94:	68fb      	ldr	r3, [r7, #12]
 8000b96:	691b      	ldr	r3, [r3, #16]
 8000b98:	2b01      	cmp	r3, #1
 8000b9a:	d102      	bne.n	8000ba2 <HAL_PCD_EP_Receive+0x5a>
  {
    ep->dma_addr = (uint32_t)pBuf;
 8000b9c:	687a      	ldr	r2, [r7, #4]
 8000b9e:	697b      	ldr	r3, [r7, #20]
 8000ba0:	611a      	str	r2, [r3, #16]
  }

  if ((ep_addr & 0x7F) == 0)
 8000ba2:	7afb      	ldrb	r3, [r7, #11]
 8000ba4:	f003 037f 	and.w	r3, r3, #127	; 0x7f
 8000ba8:	2b00      	cmp	r3, #0
 8000baa:	d109      	bne.n	8000bc0 <HAL_PCD_EP_Receive+0x78>
  {
    USB_EP0StartXfer(hpcd->Instance, ep, hpcd->Init.dma_enable);
 8000bac:	68fb      	ldr	r3, [r7, #12]
 8000bae:	6818      	ldr	r0, [r3, #0]
 8000bb0:	68fb      	ldr	r3, [r7, #12]
 8000bb2:	691b      	ldr	r3, [r3, #16]
 8000bb4:	b2db      	uxtb	r3, r3
 8000bb6:	461a      	mov	r2, r3
 8000bb8:	6979      	ldr	r1, [r7, #20]
 8000bba:	f000 fe83 	bl	80018c4 <USB_EP0StartXfer>
 8000bbe:	e008      	b.n	8000bd2 <HAL_PCD_EP_Receive+0x8a>
  }
  else
  {
    USB_EPStartXfer(hpcd->Instance, ep, hpcd->Init.dma_enable);
 8000bc0:	68fb      	ldr	r3, [r7, #12]
 8000bc2:	6818      	ldr	r0, [r3, #0]
 8000bc4:	68fb      	ldr	r3, [r7, #12]
 8000bc6:	691b      	ldr	r3, [r3, #16]
 8000bc8:	b2db      	uxtb	r3, r3
 8000bca:	461a      	mov	r2, r3
 8000bcc:	6979      	ldr	r1, [r7, #20]
 8000bce:	f000 fc35 	bl	800143c <USB_EPStartXfer>
  }

  return HAL_OK;
 8000bd2:	2300      	movs	r3, #0
}
 8000bd4:	4618      	mov	r0, r3
 8000bd6:	3718      	adds	r7, #24
 8000bd8:	46bd      	mov	sp, r7
 8000bda:	bd80      	pop	{r7, pc}

08000bdc <HAL_PCD_EP_GetRxCount>:
  * @param  hpcd PCD handle
  * @param  ep_addr endpoint address
  * @retval Data Size
  */
uint16_t HAL_PCD_EP_GetRxCount(PCD_HandleTypeDef *hpcd, uint8_t ep_addr)
{
 8000bdc:	b480      	push	{r7}
 8000bde:	b083      	sub	sp, #12
 8000be0:	af00      	add	r7, sp, #0
 8000be2:	6078      	str	r0, [r7, #4]
 8000be4:	460b      	mov	r3, r1
 8000be6:	70fb      	strb	r3, [r7, #3]
  return hpcd->OUT_ep[ep_addr & 0xF].xfer_count;
 8000be8:	78fb      	ldrb	r3, [r7, #3]
 8000bea:	f003 020f 	and.w	r2, r3, #15
 8000bee:	6879      	ldr	r1, [r7, #4]
 8000bf0:	4613      	mov	r3, r2
 8000bf2:	00db      	lsls	r3, r3, #3
 8000bf4:	1a9b      	subs	r3, r3, r2
 8000bf6:	009b      	lsls	r3, r3, #2
 8000bf8:	440b      	add	r3, r1
 8000bfa:	f503 7304 	add.w	r3, r3, #528	; 0x210
 8000bfe:	681b      	ldr	r3, [r3, #0]
 8000c00:	b29b      	uxth	r3, r3
}
 8000c02:	4618      	mov	r0, r3
 8000c04:	370c      	adds	r7, #12
 8000c06:	46bd      	mov	sp, r7
 8000c08:	f85d 7b04 	ldr.w	r7, [sp], #4
 8000c0c:	4770      	bx	lr

08000c0e <HAL_PCD_EP_Transmit>:
  * @param  pBuf pointer to the transmission buffer
  * @param  len amount of data to be sent
  * @retval HAL status
  */
HAL_StatusTypeDef HAL_PCD_EP_Transmit(PCD_HandleTypeDef *hpcd, uint8_t ep_addr, uint8_t *pBuf, uint32_t len)
{
 8000c0e:	b580      	push	{r7, lr}
 8000c10:	b086      	sub	sp, #24
 8000c12:	af00      	add	r7, sp, #0
 8000c14:	60f8      	str	r0, [r7, #12]
 8000c16:	607a      	str	r2, [r7, #4]
 8000c18:	603b      	str	r3, [r7, #0]
 8000c1a:	460b      	mov	r3, r1
 8000c1c:	72fb      	strb	r3, [r7, #11]
  USB_OTG_EPTypeDef *ep;

  ep = &hpcd->IN_ep[ep_addr & 0x7F];
 8000c1e:	7afb      	ldrb	r3, [r7, #11]
 8000c20:	f003 027f 	and.w	r2, r3, #127	; 0x7f
 8000c24:	4613      	mov	r3, r2
 8000c26:	00db      	lsls	r3, r3, #3
 8000c28:	1a9b      	subs	r3, r3, r2
 8000c2a:	009b      	lsls	r3, r3, #2
 8000c2c:	3338      	adds	r3, #56	; 0x38
 8000c2e:	68fa      	ldr	r2, [r7, #12]
 8000c30:	4413      	add	r3, r2
 8000c32:	617b      	str	r3, [r7, #20]

  /*setup and start the Xfer */
  ep->xfer_buff = pBuf;
 8000c34:	697b      	ldr	r3, [r7, #20]
 8000c36:	687a      	ldr	r2, [r7, #4]
 8000c38:	60da      	str	r2, [r3, #12]
  ep->xfer_len = len;
 8000c3a:	697b      	ldr	r3, [r7, #20]
 8000c3c:	683a      	ldr	r2, [r7, #0]
 8000c3e:	615a      	str	r2, [r3, #20]
  ep->xfer_count = 0;
 8000c40:	697b      	ldr	r3, [r7, #20]
 8000c42:	2200      	movs	r2, #0
 8000c44:	619a      	str	r2, [r3, #24]
  ep->is_in = 1;
 8000c46:	697b      	ldr	r3, [r7, #20]
 8000c48:	2201      	movs	r2, #1
 8000c4a:	705a      	strb	r2, [r3, #1]
  ep->num = ep_addr & 0x7F;
 8000c4c:	7afb      	ldrb	r3, [r7, #11]
 8000c4e:	f003 037f 	and.w	r3, r3, #127	; 0x7f
 8000c52:	b2da      	uxtb	r2, r3
 8000c54:	697b      	ldr	r3, [r7, #20]
 8000c56:	701a      	strb	r2, [r3, #0]

  if (hpcd->Init.dma_enable == 1)
 8000c58:	68fb      	ldr	r3, [r7, #12]
 8000c5a:	691b      	ldr	r3, [r3, #16]
 8000c5c:	2b01      	cmp	r3, #1
 8000c5e:	d102      	bne.n	8000c66 <HAL_PCD_EP_Transmit+0x58>
  {
    ep->dma_addr = (uint32_t)pBuf;
 8000c60:	687a      	ldr	r2, [r7, #4]
 8000c62:	697b      	ldr	r3, [r7, #20]
 8000c64:	611a      	str	r2, [r3, #16]
  }

  if ((ep_addr & 0x7F) == 0)
 8000c66:	7afb      	ldrb	r3, [r7, #11]
 8000c68:	f003 037f 	and.w	r3, r3, #127	; 0x7f
 8000c6c:	2b00      	cmp	r3, #0
 8000c6e:	d109      	bne.n	8000c84 <HAL_PCD_EP_Transmit+0x76>
  {
    USB_EP0StartXfer(hpcd->Instance, ep, hpcd->Init.dma_enable);
 8000c70:	68fb      	ldr	r3, [r7, #12]
 8000c72:	6818      	ldr	r0, [r3, #0]
 8000c74:	68fb      	ldr	r3, [r7, #12]
 8000c76:	691b      	ldr	r3, [r3, #16]
 8000c78:	b2db      	uxtb	r3, r3
 8000c7a:	461a      	mov	r2, r3
 8000c7c:	6979      	ldr	r1, [r7, #20]
 8000c7e:	f000 fe21 	bl	80018c4 <USB_EP0StartXfer>
 8000c82:	e008      	b.n	8000c96 <HAL_PCD_EP_Transmit+0x88>
  }
  else
  {
    USB_EPStartXfer(hpcd->Instance, ep, hpcd->Init.dma_enable);
 8000c84:	68fb      	ldr	r3, [r7, #12]
 8000c86:	6818      	ldr	r0, [r3, #0]
 8000c88:	68fb      	ldr	r3, [r7, #12]
 8000c8a:	691b      	ldr	r3, [r3, #16]
 8000c8c:	b2db      	uxtb	r3, r3
 8000c8e:	461a      	mov	r2, r3
 8000c90:	6979      	ldr	r1, [r7, #20]
 8000c92:	f000 fbd3 	bl	800143c <USB_EPStartXfer>
  }

  return HAL_OK;
 8000c96:	2300      	movs	r3, #0
}
 8000c98:	4618      	mov	r0, r3
 8000c9a:	3718      	adds	r7, #24
 8000c9c:	46bd      	mov	sp, r7
 8000c9e:	bd80      	pop	{r7, pc}

08000ca0 <HAL_PCDEx_SetTxFiFo>:
  * @param  fifo The number of Tx fifo
  * @param  size Fifo size
  * @retval HAL status
  */
HAL_StatusTypeDef HAL_PCDEx_SetTxFiFo(PCD_HandleTypeDef *hpcd, uint8_t fifo, uint16_t size)
{
 8000ca0:	b480      	push	{r7}
 8000ca2:	b085      	sub	sp, #20
 8000ca4:	af00      	add	r7, sp, #0
 8000ca6:	6078      	str	r0, [r7, #4]
 8000ca8:	460b      	mov	r3, r1
 8000caa:	70fb      	strb	r3, [r7, #3]
 8000cac:	4613      	mov	r3, r2
 8000cae:	803b      	strh	r3, [r7, #0]
  uint8_t i = 0;
 8000cb0:	2300      	movs	r3, #0
 8000cb2:	73fb      	strb	r3, [r7, #15]
  uint32_t Tx_Offset = 0;
 8000cb4:	2300      	movs	r3, #0
 8000cb6:	60bb      	str	r3, [r7, #8]
         --> Txn should be configured with the minimum space of 16 words
     The FIFO is used optimally when used TxFIFOs are allocated in the top 
         of the FIFO.Ex: use EP1 and EP2 as IN instead of EP1 and EP3 as IN ones.
     When DMA is used 3n * FIFO locations should be reserved for internal DMA registers */
  
  Tx_Offset = hpcd->Instance->GRXFSIZ;
 8000cb8:	687b      	ldr	r3, [r7, #4]
 8000cba:	681b      	ldr	r3, [r3, #0]
 8000cbc:	6a5b      	ldr	r3, [r3, #36]	; 0x24
 8000cbe:	60bb      	str	r3, [r7, #8]
  
  if(fifo == 0)
 8000cc0:	78fb      	ldrb	r3, [r7, #3]
 8000cc2:	2b00      	cmp	r3, #0
 8000cc4:	d107      	bne.n	8000cd6 <HAL_PCDEx_SetTxFiFo+0x36>
  {
    hpcd->Instance->DIEPTXF0_HNPTXFSIZ = (uint32_t)(((uint32_t)size << 16) | Tx_Offset);
 8000cc6:	687b      	ldr	r3, [r7, #4]
 8000cc8:	681b      	ldr	r3, [r3, #0]
 8000cca:	883a      	ldrh	r2, [r7, #0]
 8000ccc:	0411      	lsls	r1, r2, #16
 8000cce:	68ba      	ldr	r2, [r7, #8]
 8000cd0:	430a      	orrs	r2, r1
 8000cd2:	629a      	str	r2, [r3, #40]	; 0x28
 8000cd4:	e028      	b.n	8000d28 <HAL_PCDEx_SetTxFiFo+0x88>
  }
  else
  {
    Tx_Offset += (hpcd->Instance->DIEPTXF0_HNPTXFSIZ) >> 16;
 8000cd6:	687b      	ldr	r3, [r7, #4]
 8000cd8:	681b      	ldr	r3, [r3, #0]
 8000cda:	6a9b      	ldr	r3, [r3, #40]	; 0x28
 8000cdc:	0c1b      	lsrs	r3, r3, #16
 8000cde:	68ba      	ldr	r2, [r7, #8]
 8000ce0:	4413      	add	r3, r2
 8000ce2:	60bb      	str	r3, [r7, #8]
    for (i = 0; i < (fifo - 1); i++)
 8000ce4:	2300      	movs	r3, #0
 8000ce6:	73fb      	strb	r3, [r7, #15]
 8000ce8:	e00d      	b.n	8000d06 <HAL_PCDEx_SetTxFiFo+0x66>
    {
      Tx_Offset += (hpcd->Instance->DIEPTXF[i] >> 16);
 8000cea:	687b      	ldr	r3, [r7, #4]
 8000cec:	681a      	ldr	r2, [r3, #0]
 8000cee:	7bfb      	ldrb	r3, [r7, #15]
 8000cf0:	3340      	adds	r3, #64	; 0x40
 8000cf2:	009b      	lsls	r3, r3, #2
 8000cf4:	4413      	add	r3, r2
 8000cf6:	685b      	ldr	r3, [r3, #4]
 8000cf8:	0c1b      	lsrs	r3, r3, #16
 8000cfa:	68ba      	ldr	r2, [r7, #8]
 8000cfc:	4413      	add	r3, r2
 8000cfe:	60bb      	str	r3, [r7, #8]
    for (i = 0; i < (fifo - 1); i++)
 8000d00:	7bfb      	ldrb	r3, [r7, #15]
 8000d02:	3301      	adds	r3, #1
 8000d04:	73fb      	strb	r3, [r7, #15]
 8000d06:	7bfa      	ldrb	r2, [r7, #15]
 8000d08:	78fb      	ldrb	r3, [r7, #3]
 8000d0a:	3b01      	subs	r3, #1
 8000d0c:	429a      	cmp	r2, r3
 8000d0e:	dbec      	blt.n	8000cea <HAL_PCDEx_SetTxFiFo+0x4a>
    }
    
    /* Multiply Tx_Size by 2 to get higher performance */
    hpcd->Instance->DIEPTXF[fifo - 1] = (uint32_t)(((uint32_t)size << 16) | Tx_Offset);
 8000d10:	687b      	ldr	r3, [r7, #4]
 8000d12:	6819      	ldr	r1, [r3, #0]
 8000d14:	78fb      	ldrb	r3, [r7, #3]
 8000d16:	3b01      	subs	r3, #1
 8000d18:	883a      	ldrh	r2, [r7, #0]
 8000d1a:	0410      	lsls	r0, r2, #16
 8000d1c:	68ba      	ldr	r2, [r7, #8]
 8000d1e:	4302      	orrs	r2, r0
 8000d20:	3340      	adds	r3, #64	; 0x40
 8000d22:	009b      	lsls	r3, r3, #2
 8000d24:	440b      	add	r3, r1
 8000d26:	605a      	str	r2, [r3, #4]
  }
  
  return HAL_OK;
 8000d28:	2300      	movs	r3, #0
}
 8000d2a:	4618      	mov	r0, r3
 8000d2c:	3714      	adds	r7, #20
 8000d2e:	46bd      	mov	sp, r7
 8000d30:	f85d 7b04 	ldr.w	r7, [sp], #4
 8000d34:	4770      	bx	lr

08000d36 <HAL_PCDEx_SetRxFiFo>:
  * @param  hpcd PCD handle
  * @param  size Size of Rx fifo
  * @retval HAL status
  */
HAL_StatusTypeDef HAL_PCDEx_SetRxFiFo(PCD_HandleTypeDef *hpcd, uint16_t size)
{
 8000d36:	b480      	push	{r7}
 8000d38:	b083      	sub	sp, #12
 8000d3a:	af00      	add	r7, sp, #0
 8000d3c:	6078      	str	r0, [r7, #4]
 8000d3e:	460b      	mov	r3, r1
 8000d40:	807b      	strh	r3, [r7, #2]
  hpcd->Instance->GRXFSIZ = size;
 8000d42:	687b      	ldr	r3, [r7, #4]
 8000d44:	681b      	ldr	r3, [r3, #0]
 8000d46:	887a      	ldrh	r2, [r7, #2]
 8000d48:	625a      	str	r2, [r3, #36]	; 0x24
  
  return HAL_OK;
 8000d4a:	2300      	movs	r3, #0
}
 8000d4c:	4618      	mov	r0, r3
 8000d4e:	370c      	adds	r7, #12
 8000d50:	46bd      	mov	sp, r7
 8000d52:	f85d 7b04 	ldr.w	r7, [sp], #4
 8000d56:	4770      	bx	lr

08000d58 <HAL_PCDEx_ActivateLPM>:
  * @brief  Activate LPM Feature
  * @param  hpcd PCD handle
  * @retval HAL status
  */
HAL_StatusTypeDef HAL_PCDEx_ActivateLPM(PCD_HandleTypeDef *hpcd)
{
 8000d58:	b480      	push	{r7}
 8000d5a:	b085      	sub	sp, #20
 8000d5c:	af00      	add	r7, sp, #0
 8000d5e:	6078      	str	r0, [r7, #4]
  USB_OTG_GlobalTypeDef *USBx = hpcd->Instance;  
 8000d60:	687b      	ldr	r3, [r7, #4]
 8000d62:	681b      	ldr	r3, [r3, #0]
 8000d64:	60fb      	str	r3, [r7, #12]
  
  hpcd->lpm_active = ENABLE;
 8000d66:	687b      	ldr	r3, [r7, #4]
 8000d68:	2201      	movs	r2, #1
 8000d6a:	f8c3 23f4 	str.w	r2, [r3, #1012]	; 0x3f4
  hpcd->LPM_State = LPM_L0;
 8000d6e:	687b      	ldr	r3, [r7, #4]
 8000d70:	2200      	movs	r2, #0
 8000d72:	f883 23ec 	strb.w	r2, [r3, #1004]	; 0x3ec
  USBx->GINTMSK |= USB_OTG_GINTMSK_LPMINTM;
 8000d76:	68fb      	ldr	r3, [r7, #12]
 8000d78:	699b      	ldr	r3, [r3, #24]
 8000d7a:	f043 6200 	orr.w	r2, r3, #134217728	; 0x8000000
 8000d7e:	68fb      	ldr	r3, [r7, #12]
 8000d80:	619a      	str	r2, [r3, #24]
  USBx->GLPMCFG |= (USB_OTG_GLPMCFG_LPMEN | USB_OTG_GLPMCFG_LPMACK | USB_OTG_GLPMCFG_ENBESL);
 8000d82:	68fb      	ldr	r3, [r7, #12]
 8000d84:	6d5a      	ldr	r2, [r3, #84]	; 0x54
 8000d86:	4b05      	ldr	r3, [pc, #20]	; (8000d9c <HAL_PCDEx_ActivateLPM+0x44>)
 8000d88:	4313      	orrs	r3, r2
 8000d8a:	68fa      	ldr	r2, [r7, #12]
 8000d8c:	6553      	str	r3, [r2, #84]	; 0x54
  
  return HAL_OK;  
 8000d8e:	2300      	movs	r3, #0
}
 8000d90:	4618      	mov	r0, r3
 8000d92:	3714      	adds	r7, #20
 8000d94:	46bd      	mov	sp, r7
 8000d96:	f85d 7b04 	ldr.w	r7, [sp], #4
 8000d9a:	4770      	bx	lr
 8000d9c:	10000003 	.word	0x10000003

08000da0 <USB_CoreInit>:
  * @param  cfg  pointer to a USB_OTG_CfgTypeDef structure that contains
  *         the configuration information for the specified USBx peripheral.
  * @retval HAL status
  */
HAL_StatusTypeDef USB_CoreInit(USB_OTG_GlobalTypeDef *USBx, USB_OTG_CfgTypeDef cfg)
{
 8000da0:	b084      	sub	sp, #16
 8000da2:	b580      	push	{r7, lr}
 8000da4:	b082      	sub	sp, #8
 8000da6:	af00      	add	r7, sp, #0
 8000da8:	6078      	str	r0, [r7, #4]
 8000daa:	f107 0014 	add.w	r0, r7, #20
 8000dae:	e880 000e 	stmia.w	r0, {r1, r2, r3}
  if (cfg.phy_itface == USB_OTG_ULPI_PHY)
 8000db2:	6abb      	ldr	r3, [r7, #40]	; 0x28
 8000db4:	2b01      	cmp	r3, #1
 8000db6:	d11e      	bne.n	8000df6 <USB_CoreInit+0x56>
  {

    USBx->GCCFG &= ~(USB_OTG_GCCFG_PWRDWN);
 8000db8:	687b      	ldr	r3, [r7, #4]
 8000dba:	6b9b      	ldr	r3, [r3, #56]	; 0x38
 8000dbc:	f423 3280 	bic.w	r2, r3, #65536	; 0x10000
 8000dc0:	687b      	ldr	r3, [r7, #4]
 8000dc2:	639a      	str	r2, [r3, #56]	; 0x38

    /* Init The ULPI Interface */
    USBx->GUSBCFG &= ~(USB_OTG_GUSBCFG_TSDPS | USB_OTG_GUSBCFG_ULPIFSLS | USB_OTG_GUSBCFG_PHYSEL);
 8000dc4:	687b      	ldr	r3, [r7, #4]
 8000dc6:	68da      	ldr	r2, [r3, #12]
 8000dc8:	4b1d      	ldr	r3, [pc, #116]	; (8000e40 <USB_CoreInit+0xa0>)
 8000dca:	4013      	ands	r3, r2
 8000dcc:	687a      	ldr	r2, [r7, #4]
 8000dce:	60d3      	str	r3, [r2, #12]

    /* Select vbus source */
    USBx->GUSBCFG &= ~(USB_OTG_GUSBCFG_ULPIEVBUSD | USB_OTG_GUSBCFG_ULPIEVBUSI);
 8000dd0:	687b      	ldr	r3, [r7, #4]
 8000dd2:	68db      	ldr	r3, [r3, #12]
 8000dd4:	f423 1240 	bic.w	r2, r3, #3145728	; 0x300000
 8000dd8:	687b      	ldr	r3, [r7, #4]
 8000dda:	60da      	str	r2, [r3, #12]
    if(cfg.use_external_vbus == 1)
 8000ddc:	6c7b      	ldr	r3, [r7, #68]	; 0x44
 8000dde:	2b01      	cmp	r3, #1
 8000de0:	d105      	bne.n	8000dee <USB_CoreInit+0x4e>
    {
      USBx->GUSBCFG |= USB_OTG_GUSBCFG_ULPIEVBUSD;
 8000de2:	687b      	ldr	r3, [r7, #4]
 8000de4:	68db      	ldr	r3, [r3, #12]
 8000de6:	f443 1280 	orr.w	r2, r3, #1048576	; 0x100000
 8000dea:	687b      	ldr	r3, [r7, #4]
 8000dec:	60da      	str	r2, [r3, #12]
    }
    /* Reset after a PHY select  */
    USB_CoreReset(USBx);
 8000dee:	6878      	ldr	r0, [r7, #4]
 8000df0:	f000 ff2a 	bl	8001c48 <USB_CoreReset>
 8000df4:	e00c      	b.n	8000e10 <USB_CoreInit+0x70>
  }
#endif
  else /* FS interface (embedded Phy) */
  {
    /* Select FS Embedded PHY */
    USBx->GUSBCFG |= USB_OTG_GUSBCFG_PHYSEL;
 8000df6:	687b      	ldr	r3, [r7, #4]
 8000df8:	68db      	ldr	r3, [r3, #12]
 8000dfa:	f043 0240 	orr.w	r2, r3, #64	; 0x40
 8000dfe:	687b      	ldr	r3, [r7, #4]
 8000e00:	60da      	str	r2, [r3, #12]

    /* Reset after a PHY select and set Host mode */
    USB_CoreReset(USBx);
 8000e02:	6878      	ldr	r0, [r7, #4]
 8000e04:	f000 ff20 	bl	8001c48 <USB_CoreReset>

    /* Deactivate the power down*/
    USBx->GCCFG = USB_OTG_GCCFG_PWRDWN;
 8000e08:	687b      	ldr	r3, [r7, #4]
 8000e0a:	f44f 3280 	mov.w	r2, #65536	; 0x10000
 8000e0e:	639a      	str	r2, [r3, #56]	; 0x38
  }

  if(cfg.dma_enable == ENABLE)
 8000e10:	6a3b      	ldr	r3, [r7, #32]
 8000e12:	2b01      	cmp	r3, #1
 8000e14:	d10b      	bne.n	8000e2e <USB_CoreInit+0x8e>
  {
    USBx->GAHBCFG |= USB_OTG_GAHBCFG_HBSTLEN_2;
 8000e16:	687b      	ldr	r3, [r7, #4]
 8000e18:	689b      	ldr	r3, [r3, #8]
 8000e1a:	f043 0208 	orr.w	r2, r3, #8
 8000e1e:	687b      	ldr	r3, [r7, #4]
 8000e20:	609a      	str	r2, [r3, #8]
    USBx->GAHBCFG |= USB_OTG_GAHBCFG_DMAEN;
 8000e22:	687b      	ldr	r3, [r7, #4]
 8000e24:	689b      	ldr	r3, [r3, #8]
 8000e26:	f043 0220 	orr.w	r2, r3, #32
 8000e2a:	687b      	ldr	r3, [r7, #4]
 8000e2c:	609a      	str	r2, [r3, #8]
  }

  return HAL_OK;
 8000e2e:	2300      	movs	r3, #0
}
 8000e30:	4618      	mov	r0, r3
 8000e32:	3708      	adds	r7, #8
 8000e34:	46bd      	mov	sp, r7
 8000e36:	e8bd 4080 	ldmia.w	sp!, {r7, lr}
 8000e3a:	b004      	add	sp, #16
 8000e3c:	4770      	bx	lr
 8000e3e:	bf00      	nop
 8000e40:	ffbdffbf 	.word	0xffbdffbf

08000e44 <USB_EnableGlobalInt>:
  *         Enables the controller's Global Int in the AHB Config reg
  * @param  USBx  Selected device
  * @retval HAL status
  */
HAL_StatusTypeDef USB_EnableGlobalInt(USB_OTG_GlobalTypeDef *USBx)
{
 8000e44:	b480      	push	{r7}
 8000e46:	b083      	sub	sp, #12
 8000e48:	af00      	add	r7, sp, #0
 8000e4a:	6078      	str	r0, [r7, #4]
  USBx->GAHBCFG |= USB_OTG_GAHBCFG_GINT;
 8000e4c:	687b      	ldr	r3, [r7, #4]
 8000e4e:	689b      	ldr	r3, [r3, #8]
 8000e50:	f043 0201 	orr.w	r2, r3, #1
 8000e54:	687b      	ldr	r3, [r7, #4]
 8000e56:	609a      	str	r2, [r3, #8]
  return HAL_OK;
 8000e58:	2300      	movs	r3, #0
}
 8000e5a:	4618      	mov	r0, r3
 8000e5c:	370c      	adds	r7, #12
 8000e5e:	46bd      	mov	sp, r7
 8000e60:	f85d 7b04 	ldr.w	r7, [sp], #4
 8000e64:	4770      	bx	lr

08000e66 <USB_DisableGlobalInt>:
  *         Disable the controller's Global Int in the AHB Config reg
  * @param  USBx  Selected device
  * @retval HAL status
*/
HAL_StatusTypeDef USB_DisableGlobalInt(USB_OTG_GlobalTypeDef *USBx)
{
 8000e66:	b480      	push	{r7}
 8000e68:	b083      	sub	sp, #12
 8000e6a:	af00      	add	r7, sp, #0
 8000e6c:	6078      	str	r0, [r7, #4]
  USBx->GAHBCFG &= ~USB_OTG_GAHBCFG_GINT;
 8000e6e:	687b      	ldr	r3, [r7, #4]
 8000e70:	689b      	ldr	r3, [r3, #8]
 8000e72:	f023 0201 	bic.w	r2, r3, #1
 8000e76:	687b      	ldr	r3, [r7, #4]
 8000e78:	609a      	str	r2, [r3, #8]
  return HAL_OK;
 8000e7a:	2300      	movs	r3, #0
}
 8000e7c:	4618      	mov	r0, r3
 8000e7e:	370c      	adds	r7, #12
 8000e80:	46bd      	mov	sp, r7
 8000e82:	f85d 7b04 	ldr.w	r7, [sp], #4
 8000e86:	4770      	bx	lr

08000e88 <USB_SetCurrentMode>:
  *            @arg USB_OTG_HOST_MODE: Host mode
  *            @arg USB_OTG_DRD_MODE: Dual Role Device mode
  * @retval HAL status
  */
HAL_StatusTypeDef USB_SetCurrentMode(USB_OTG_GlobalTypeDef *USBx , USB_OTG_ModeTypeDef mode)
{
 8000e88:	b580      	push	{r7, lr}
 8000e8a:	b082      	sub	sp, #8
 8000e8c:	af00      	add	r7, sp, #0
 8000e8e:	6078      	str	r0, [r7, #4]
 8000e90:	460b      	mov	r3, r1
 8000e92:	70fb      	strb	r3, [r7, #3]
  USBx->GUSBCFG &= ~(USB_OTG_GUSBCFG_FHMOD | USB_OTG_GUSBCFG_FDMOD);
 8000e94:	687b      	ldr	r3, [r7, #4]
 8000e96:	68db      	ldr	r3, [r3, #12]
 8000e98:	f023 42c0 	bic.w	r2, r3, #1610612736	; 0x60000000
 8000e9c:	687b      	ldr	r3, [r7, #4]
 8000e9e:	60da      	str	r2, [r3, #12]

  if ( mode == USB_OTG_HOST_MODE)
 8000ea0:	78fb      	ldrb	r3, [r7, #3]
 8000ea2:	2b01      	cmp	r3, #1
 8000ea4:	d106      	bne.n	8000eb4 <USB_SetCurrentMode+0x2c>
  {
    USBx->GUSBCFG |= USB_OTG_GUSBCFG_FHMOD;
 8000ea6:	687b      	ldr	r3, [r7, #4]
 8000ea8:	68db      	ldr	r3, [r3, #12]
 8000eaa:	f043 5200 	orr.w	r2, r3, #536870912	; 0x20000000
 8000eae:	687b      	ldr	r3, [r7, #4]
 8000eb0:	60da      	str	r2, [r3, #12]
 8000eb2:	e008      	b.n	8000ec6 <USB_SetCurrentMode+0x3e>
  }
  else if ( mode == USB_OTG_DEVICE_MODE)
 8000eb4:	78fb      	ldrb	r3, [r7, #3]
 8000eb6:	2b00      	cmp	r3, #0
 8000eb8:	d105      	bne.n	8000ec6 <USB_SetCurrentMode+0x3e>
  {
    USBx->GUSBCFG |= USB_OTG_GUSBCFG_FDMOD;
 8000eba:	687b      	ldr	r3, [r7, #4]
 8000ebc:	68db      	ldr	r3, [r3, #12]
 8000ebe:	f043 4280 	orr.w	r2, r3, #1073741824	; 0x40000000
 8000ec2:	687b      	ldr	r3, [r7, #4]
 8000ec4:	60da      	str	r2, [r3, #12]
  }
  HAL_Delay(50);
 8000ec6:	2032      	movs	r0, #50	; 0x32
 8000ec8:	f7ff f9d6 	bl	8000278 <HAL_Delay>

  return HAL_OK;
 8000ecc:	2300      	movs	r3, #0
}
 8000ece:	4618      	mov	r0, r3
 8000ed0:	3708      	adds	r7, #8
 8000ed2:	46bd      	mov	sp, r7
 8000ed4:	bd80      	pop	{r7, pc}
	...

08000ed8 <USB_DevInit>:
  * @param  cfg   pointer to a USB_OTG_CfgTypeDef structure that contains
  *         the configuration information for the specified USBx peripheral.
  * @retval HAL status
  */
HAL_StatusTypeDef USB_DevInit (USB_OTG_GlobalTypeDef *USBx, USB_OTG_CfgTypeDef cfg)
{
 8000ed8:	b084      	sub	sp, #16
 8000eda:	b580      	push	{r7, lr}
 8000edc:	b084      	sub	sp, #16
 8000ede:	af00      	add	r7, sp, #0
 8000ee0:	6078      	str	r0, [r7, #4]
 8000ee2:	f107 001c 	add.w	r0, r7, #28
 8000ee6:	e880 000e 	stmia.w	r0, {r1, r2, r3}
  uint32_t i = 0;
 8000eea:	2300      	movs	r3, #0
 8000eec:	60fb      	str	r3, [r7, #12]

  /*Activate VBUS Sensing B */
  USBx->GCCFG |= USB_OTG_GCCFG_VBDEN;
 8000eee:	687b      	ldr	r3, [r7, #4]
 8000ef0:	6b9b      	ldr	r3, [r3, #56]	; 0x38
 8000ef2:	f443 1200 	orr.w	r2, r3, #2097152	; 0x200000
 8000ef6:	687b      	ldr	r3, [r7, #4]
 8000ef8:	639a      	str	r2, [r3, #56]	; 0x38

  if (cfg.vbus_sensing_enable == 0)
 8000efa:	6c7b      	ldr	r3, [r7, #68]	; 0x44
 8000efc:	2b00      	cmp	r3, #0
 8000efe:	d111      	bne.n	8000f24 <USB_DevInit+0x4c>
  {
    /* Deactivate VBUS Sensing B */
    USBx->GCCFG &= ~ USB_OTG_GCCFG_VBDEN;
 8000f00:	687b      	ldr	r3, [r7, #4]
 8000f02:	6b9b      	ldr	r3, [r3, #56]	; 0x38
 8000f04:	f423 1200 	bic.w	r2, r3, #2097152	; 0x200000
 8000f08:	687b      	ldr	r3, [r7, #4]
 8000f0a:	639a      	str	r2, [r3, #56]	; 0x38

    /* B-peripheral session valid override enable*/
    USBx->GOTGCTL |= USB_OTG_GOTGCTL_BVALOEN;
 8000f0c:	687b      	ldr	r3, [r7, #4]
 8000f0e:	681b      	ldr	r3, [r3, #0]
 8000f10:	f043 0240 	orr.w	r2, r3, #64	; 0x40
 8000f14:	687b      	ldr	r3, [r7, #4]
 8000f16:	601a      	str	r2, [r3, #0]
    USBx->GOTGCTL |= USB_OTG_GOTGCTL_BVALOVAL;
 8000f18:	687b      	ldr	r3, [r7, #4]
 8000f1a:	681b      	ldr	r3, [r3, #0]
 8000f1c:	f043 0280 	orr.w	r2, r3, #128	; 0x80
 8000f20:	687b      	ldr	r3, [r7, #4]
 8000f22:	601a      	str	r2, [r3, #0]
  }

  /* Restart the Phy Clock */
  USBx_PCGCCTL = 0;
 8000f24:	687b      	ldr	r3, [r7, #4]
 8000f26:	f503 6360 	add.w	r3, r3, #3584	; 0xe00
 8000f2a:	461a      	mov	r2, r3
 8000f2c:	2300      	movs	r3, #0
 8000f2e:	6013      	str	r3, [r2, #0]

  /* Device mode configuration */
  USBx_DEVICE->DCFG |= DCFG_FRAME_INTERVAL_80;
 8000f30:	687b      	ldr	r3, [r7, #4]
 8000f32:	f503 6300 	add.w	r3, r3, #2048	; 0x800
 8000f36:	461a      	mov	r2, r3
 8000f38:	687b      	ldr	r3, [r7, #4]
 8000f3a:	f503 6300 	add.w	r3, r3, #2048	; 0x800
 8000f3e:	681b      	ldr	r3, [r3, #0]
 8000f40:	6013      	str	r3, [r2, #0]

  if(cfg.phy_itface  == USB_OTG_ULPI_PHY)
 8000f42:	6b3b      	ldr	r3, [r7, #48]	; 0x30
 8000f44:	2b01      	cmp	r3, #1
 8000f46:	d10c      	bne.n	8000f62 <USB_DevInit+0x8a>
  {
    if(cfg.speed == USB_OTG_SPEED_HIGH)
 8000f48:	6a7b      	ldr	r3, [r7, #36]	; 0x24
 8000f4a:	2b00      	cmp	r3, #0
 8000f4c:	d104      	bne.n	8000f58 <USB_DevInit+0x80>
    {
      /* Set High speed phy */
      USB_SetDevSpeed (USBx , USB_OTG_SPEED_HIGH);
 8000f4e:	2100      	movs	r1, #0
 8000f50:	6878      	ldr	r0, [r7, #4]
 8000f52:	f000 f957 	bl	8001204 <USB_SetDevSpeed>
 8000f56:	e018      	b.n	8000f8a <USB_DevInit+0xb2>
    }
    else
    {
      /* set High speed phy in Full speed mode */
      USB_SetDevSpeed (USBx , USB_OTG_SPEED_HIGH_IN_FULL);
 8000f58:	2101      	movs	r1, #1
 8000f5a:	6878      	ldr	r0, [r7, #4]
 8000f5c:	f000 f952 	bl	8001204 <USB_SetDevSpeed>
 8000f60:	e013      	b.n	8000f8a <USB_DevInit+0xb2>
    }
  }

  else if(cfg.phy_itface  == USB_OTG_HS_EMBEDDED_PHY)
 8000f62:	6b3b      	ldr	r3, [r7, #48]	; 0x30
 8000f64:	2b03      	cmp	r3, #3
 8000f66:	d10c      	bne.n	8000f82 <USB_DevInit+0xaa>
  {
    if(cfg.speed == USB_OTG_SPEED_HIGH)
 8000f68:	6a7b      	ldr	r3, [r7, #36]	; 0x24
 8000f6a:	2b00      	cmp	r3, #0
 8000f6c:	d104      	bne.n	8000f78 <USB_DevInit+0xa0>
    {
      /* Set High speed phy */
      USB_SetDevSpeed (USBx , USB_OTG_SPEED_HIGH);
 8000f6e:	2100      	movs	r1, #0
 8000f70:	6878      	ldr	r0, [r7, #4]
 8000f72:	f000 f947 	bl	8001204 <USB_SetDevSpeed>
 8000f76:	e008      	b.n	8000f8a <USB_DevInit+0xb2>
    }
    else
    {
      /* set High speed phy in Full speed mode */
      USB_SetDevSpeed (USBx , USB_OTG_SPEED_HIGH_IN_FULL);
 8000f78:	2101      	movs	r1, #1
 8000f7a:	6878      	ldr	r0, [r7, #4]
 8000f7c:	f000 f942 	bl	8001204 <USB_SetDevSpeed>
 8000f80:	e003      	b.n	8000f8a <USB_DevInit+0xb2>
  }

  else
  {
    /* Set Full speed phy */
    USB_SetDevSpeed (USBx , USB_OTG_SPEED_FULL);
 8000f82:	2103      	movs	r1, #3
 8000f84:	6878      	ldr	r0, [r7, #4]
 8000f86:	f000 f93d 	bl	8001204 <USB_SetDevSpeed>
  }

  /* Flush the FIFOs */
  USB_FlushTxFifo(USBx , 0x10); /* all Tx FIFOs */
 8000f8a:	2110      	movs	r1, #16
 8000f8c:	6878      	ldr	r0, [r7, #4]
 8000f8e:	f000 f8f1 	bl	8001174 <USB_FlushTxFifo>
  USB_FlushRxFifo(USBx);
 8000f92:	6878      	ldr	r0, [r7, #4]
 8000f94:	f000 f914 	bl	80011c0 <USB_FlushRxFifo>

  /* Clear all pending Device Interrupts */
  USBx_DEVICE->DIEPMSK = 0;
 8000f98:	687b      	ldr	r3, [r7, #4]
 8000f9a:	f503 6300 	add.w	r3, r3, #2048	; 0x800
 8000f9e:	461a      	mov	r2, r3
 8000fa0:	2300      	movs	r3, #0
 8000fa2:	6113      	str	r3, [r2, #16]
  USBx_DEVICE->DOEPMSK = 0;
 8000fa4:	687b      	ldr	r3, [r7, #4]
 8000fa6:	f503 6300 	add.w	r3, r3, #2048	; 0x800
 8000faa:	461a      	mov	r2, r3
 8000fac:	2300      	movs	r3, #0
 8000fae:	6153      	str	r3, [r2, #20]
  USBx_DEVICE->DAINT = 0xFFFFFFFF;
 8000fb0:	687b      	ldr	r3, [r7, #4]
 8000fb2:	f503 6300 	add.w	r3, r3, #2048	; 0x800
 8000fb6:	461a      	mov	r2, r3
 8000fb8:	f04f 33ff 	mov.w	r3, #4294967295
 8000fbc:	6193      	str	r3, [r2, #24]
  USBx_DEVICE->DAINTMSK = 0;
 8000fbe:	687b      	ldr	r3, [r7, #4]
 8000fc0:	f503 6300 	add.w	r3, r3, #2048	; 0x800
 8000fc4:	461a      	mov	r2, r3
 8000fc6:	2300      	movs	r3, #0
 8000fc8:	61d3      	str	r3, [r2, #28]

  for (i = 0; i < cfg.dev_endpoints; i++)
 8000fca:	2300      	movs	r3, #0
 8000fcc:	60fb      	str	r3, [r7, #12]
 8000fce:	e034      	b.n	800103a <USB_DevInit+0x162>
  {
    if ((USBx_INEP(i)->DIEPCTL & USB_OTG_DIEPCTL_EPENA) == USB_OTG_DIEPCTL_EPENA)
 8000fd0:	68fb      	ldr	r3, [r7, #12]
 8000fd2:	015a      	lsls	r2, r3, #5
 8000fd4:	687b      	ldr	r3, [r7, #4]
 8000fd6:	4413      	add	r3, r2
 8000fd8:	f503 6310 	add.w	r3, r3, #2304	; 0x900
 8000fdc:	681b      	ldr	r3, [r3, #0]
 8000fde:	f003 4300 	and.w	r3, r3, #2147483648	; 0x80000000
 8000fe2:	f1b3 4f00 	cmp.w	r3, #2147483648	; 0x80000000
 8000fe6:	d10a      	bne.n	8000ffe <USB_DevInit+0x126>
    {
      USBx_INEP(i)->DIEPCTL = (USB_OTG_DIEPCTL_EPDIS | USB_OTG_DIEPCTL_SNAK);
 8000fe8:	68fb      	ldr	r3, [r7, #12]
 8000fea:	015a      	lsls	r2, r3, #5
 8000fec:	687b      	ldr	r3, [r7, #4]
 8000fee:	4413      	add	r3, r2
 8000ff0:	f503 6310 	add.w	r3, r3, #2304	; 0x900
 8000ff4:	461a      	mov	r2, r3
 8000ff6:	f04f 4390 	mov.w	r3, #1207959552	; 0x48000000
 8000ffa:	6013      	str	r3, [r2, #0]
 8000ffc:	e008      	b.n	8001010 <USB_DevInit+0x138>
    }
    else
    {
      USBx_INEP(i)->DIEPCTL = 0;
 8000ffe:	68fb      	ldr	r3, [r7, #12]
 8001000:	015a      	lsls	r2, r3, #5
 8001002:	687b      	ldr	r3, [r7, #4]
 8001004:	4413      	add	r3, r2
 8001006:	f503 6310 	add.w	r3, r3, #2304	; 0x900
 800100a:	461a      	mov	r2, r3
 800100c:	2300      	movs	r3, #0
 800100e:	6013      	str	r3, [r2, #0]
    }

    USBx_INEP(i)->DIEPTSIZ = 0;
 8001010:	68fb      	ldr	r3, [r7, #12]
 8001012:	015a      	lsls	r2, r3, #5
 8001014:	687b      	ldr	r3, [r7, #4]
 8001016:	4413      	add	r3, r2
 8001018:	f503 6310 	add.w	r3, r3, #2304	; 0x900
 800101c:	461a      	mov	r2, r3
 800101e:	2300      	movs	r3, #0
 8001020:	6113      	str	r3, [r2, #16]
    USBx_INEP(i)->DIEPINT  = 0xFF;
 8001022:	68fb      	ldr	r3, [r7, #12]
 8001024:	015a      	lsls	r2, r3, #5
 8001026:	687b      	ldr	r3, [r7, #4]
 8001028:	4413      	add	r3, r2
 800102a:	f503 6310 	add.w	r3, r3, #2304	; 0x900
 800102e:	461a      	mov	r2, r3
 8001030:	23ff      	movs	r3, #255	; 0xff
 8001032:	6093      	str	r3, [r2, #8]
  for (i = 0; i < cfg.dev_endpoints; i++)
 8001034:	68fb      	ldr	r3, [r7, #12]
 8001036:	3301      	adds	r3, #1
 8001038:	60fb      	str	r3, [r7, #12]
 800103a:	69fa      	ldr	r2, [r7, #28]
 800103c:	68fb      	ldr	r3, [r7, #12]
 800103e:	429a      	cmp	r2, r3
 8001040:	d8c6      	bhi.n	8000fd0 <USB_DevInit+0xf8>
  }

  for (i = 0; i < cfg.dev_endpoints; i++)
 8001042:	2300      	movs	r3, #0
 8001044:	60fb      	str	r3, [r7, #12]
 8001046:	e034      	b.n	80010b2 <USB_DevInit+0x1da>
  {
    if ((USBx_OUTEP(i)->DOEPCTL & USB_OTG_DOEPCTL_EPENA) == USB_OTG_DOEPCTL_EPENA)
 8001048:	68fb      	ldr	r3, [r7, #12]
 800104a:	015a      	lsls	r2, r3, #5
 800104c:	687b      	ldr	r3, [r7, #4]
 800104e:	4413      	add	r3, r2
 8001050:	f503 6330 	add.w	r3, r3, #2816	; 0xb00
 8001054:	681b      	ldr	r3, [r3, #0]
 8001056:	f003 4300 	and.w	r3, r3, #2147483648	; 0x80000000
 800105a:	f1b3 4f00 	cmp.w	r3, #2147483648	; 0x80000000
 800105e:	d10a      	bne.n	8001076 <USB_DevInit+0x19e>
    {
      USBx_OUTEP(i)->DOEPCTL = (USB_OTG_DOEPCTL_EPDIS | USB_OTG_DOEPCTL_SNAK);
 8001060:	68fb      	ldr	r3, [r7, #12]
 8001062:	015a      	lsls	r2, r3, #5
 8001064:	687b      	ldr	r3, [r7, #4]
 8001066:	4413      	add	r3, r2
 8001068:	f503 6330 	add.w	r3, r3, #2816	; 0xb00
 800106c:	461a      	mov	r2, r3
 800106e:	f04f 4390 	mov.w	r3, #1207959552	; 0x48000000
 8001072:	6013      	str	r3, [r2, #0]
 8001074:	e008      	b.n	8001088 <USB_DevInit+0x1b0>
    }
    else
    {
      USBx_OUTEP(i)->DOEPCTL = 0;
 8001076:	68fb      	ldr	r3, [r7, #12]
 8001078:	015a      	lsls	r2, r3, #5
 800107a:	687b      	ldr	r3, [r7, #4]
 800107c:	4413      	add	r3, r2
 800107e:	f503 6330 	add.w	r3, r3, #2816	; 0xb00
 8001082:	461a      	mov	r2, r3
 8001084:	2300      	movs	r3, #0
 8001086:	6013      	str	r3, [r2, #0]
    }

    USBx_OUTEP(i)->DOEPTSIZ = 0;
 8001088:	68fb      	ldr	r3, [r7, #12]
 800108a:	015a      	lsls	r2, r3, #5
 800108c:	687b      	ldr	r3, [r7, #4]
 800108e:	4413      	add	r3, r2
 8001090:	f503 6330 	add.w	r3, r3, #2816	; 0xb00
 8001094:	461a      	mov	r2, r3
 8001096:	2300      	movs	r3, #0
 8001098:	6113      	str	r3, [r2, #16]
    USBx_OUTEP(i)->DOEPINT  = 0xFF;
 800109a:	68fb      	ldr	r3, [r7, #12]
 800109c:	015a      	lsls	r2, r3, #5
 800109e:	687b      	ldr	r3, [r7, #4]
 80010a0:	4413      	add	r3, r2
 80010a2:	f503 6330 	add.w	r3, r3, #2816	; 0xb00
 80010a6:	461a      	mov	r2, r3
 80010a8:	23ff      	movs	r3, #255	; 0xff
 80010aa:	6093      	str	r3, [r2, #8]
  for (i = 0; i < cfg.dev_endpoints; i++)
 80010ac:	68fb      	ldr	r3, [r7, #12]
 80010ae:	3301      	adds	r3, #1
 80010b0:	60fb      	str	r3, [r7, #12]
 80010b2:	69fa      	ldr	r2, [r7, #28]
 80010b4:	68fb      	ldr	r3, [r7, #12]
 80010b6:	429a      	cmp	r2, r3
 80010b8:	d8c6      	bhi.n	8001048 <USB_DevInit+0x170>
  }

  USBx_DEVICE->DIEPMSK &= ~(USB_OTG_DIEPMSK_TXFURM);
 80010ba:	687b      	ldr	r3, [r7, #4]
 80010bc:	f503 6300 	add.w	r3, r3, #2048	; 0x800
 80010c0:	461a      	mov	r2, r3
 80010c2:	687b      	ldr	r3, [r7, #4]
 80010c4:	f503 6300 	add.w	r3, r3, #2048	; 0x800
 80010c8:	691b      	ldr	r3, [r3, #16]
 80010ca:	f423 7380 	bic.w	r3, r3, #256	; 0x100
 80010ce:	6113      	str	r3, [r2, #16]

  if (cfg.dma_enable == 1)
 80010d0:	6abb      	ldr	r3, [r7, #40]	; 0x28
 80010d2:	2b01      	cmp	r3, #1
 80010d4:	d115      	bne.n	8001102 <USB_DevInit+0x22a>
  {
    /*Set threshold parameters */
    USBx_DEVICE->DTHRCTL = (USB_OTG_DTHRCTL_TXTHRLEN_6 | USB_OTG_DTHRCTL_RXTHRLEN_6);
 80010d6:	687b      	ldr	r3, [r7, #4]
 80010d8:	f503 6300 	add.w	r3, r3, #2048	; 0x800
 80010dc:	461a      	mov	r2, r3
 80010de:	4b21      	ldr	r3, [pc, #132]	; (8001164 <USB_DevInit+0x28c>)
 80010e0:	6313      	str	r3, [r2, #48]	; 0x30
    USBx_DEVICE->DTHRCTL |= (USB_OTG_DTHRCTL_RXTHREN | USB_OTG_DTHRCTL_ISOTHREN | USB_OTG_DTHRCTL_NONISOTHREN);
 80010e2:	687b      	ldr	r3, [r7, #4]
 80010e4:	f503 6300 	add.w	r3, r3, #2048	; 0x800
 80010e8:	4619      	mov	r1, r3
 80010ea:	687b      	ldr	r3, [r7, #4]
 80010ec:	f503 6300 	add.w	r3, r3, #2048	; 0x800
 80010f0:	6b1a      	ldr	r2, [r3, #48]	; 0x30
 80010f2:	4b1d      	ldr	r3, [pc, #116]	; (8001168 <USB_DevInit+0x290>)
 80010f4:	4313      	orrs	r3, r2
 80010f6:	630b      	str	r3, [r1, #48]	; 0x30

    i= USBx_DEVICE->DTHRCTL;
 80010f8:	687b      	ldr	r3, [r7, #4]
 80010fa:	f503 6300 	add.w	r3, r3, #2048	; 0x800
 80010fe:	6b1b      	ldr	r3, [r3, #48]	; 0x30
 8001100:	60fb      	str	r3, [r7, #12]
  }

  /* Disable all interrupts. */
  USBx->GINTMSK = 0;
 8001102:	687b      	ldr	r3, [r7, #4]
 8001104:	2200      	movs	r2, #0
 8001106:	619a      	str	r2, [r3, #24]

  /* Clear any pending interrupts */
  USBx->GINTSTS = 0xBFFFFFFF;
 8001108:	687b      	ldr	r3, [r7, #4]
 800110a:	f06f 4280 	mvn.w	r2, #1073741824	; 0x40000000
 800110e:	615a      	str	r2, [r3, #20]

  /* Enable the common interrupts */
  if (cfg.dma_enable == DISABLE)
 8001110:	6abb      	ldr	r3, [r7, #40]	; 0x28
 8001112:	2b00      	cmp	r3, #0
 8001114:	d105      	bne.n	8001122 <USB_DevInit+0x24a>
  {
    USBx->GINTMSK |= USB_OTG_GINTMSK_RXFLVLM;
 8001116:	687b      	ldr	r3, [r7, #4]
 8001118:	699b      	ldr	r3, [r3, #24]
 800111a:	f043 0210 	orr.w	r2, r3, #16
 800111e:	687b      	ldr	r3, [r7, #4]
 8001120:	619a      	str	r2, [r3, #24]
  }

  /* Enable interrupts matching to the Device mode ONLY */
  USBx->GINTMSK |= (USB_OTG_GINTMSK_USBSUSPM | USB_OTG_GINTMSK_USBRST |\
 8001122:	687b      	ldr	r3, [r7, #4]
 8001124:	699a      	ldr	r2, [r3, #24]
 8001126:	4b11      	ldr	r3, [pc, #68]	; (800116c <USB_DevInit+0x294>)
 8001128:	4313      	orrs	r3, r2
 800112a:	687a      	ldr	r2, [r7, #4]
 800112c:	6193      	str	r3, [r2, #24]
                    USB_OTG_GINTMSK_ENUMDNEM | USB_OTG_GINTMSK_IEPINT |\
                    USB_OTG_GINTMSK_OEPINT   | USB_OTG_GINTMSK_IISOIXFRM|\
                    USB_OTG_GINTMSK_PXFRM_IISOOXFRM | USB_OTG_GINTMSK_WUIM);

  if(cfg.Sof_enable)
 800112e:	6b7b      	ldr	r3, [r7, #52]	; 0x34
 8001130:	2b00      	cmp	r3, #0
 8001132:	d005      	beq.n	8001140 <USB_DevInit+0x268>
  {
    USBx->GINTMSK |= USB_OTG_GINTMSK_SOFM;
 8001134:	687b      	ldr	r3, [r7, #4]
 8001136:	699b      	ldr	r3, [r3, #24]
 8001138:	f043 0208 	orr.w	r2, r3, #8
 800113c:	687b      	ldr	r3, [r7, #4]
 800113e:	619a      	str	r2, [r3, #24]
  }

  if (cfg.vbus_sensing_enable == ENABLE)
 8001140:	6c7b      	ldr	r3, [r7, #68]	; 0x44
 8001142:	2b01      	cmp	r3, #1
 8001144:	d105      	bne.n	8001152 <USB_DevInit+0x27a>
  {
    USBx->GINTMSK |= (USB_OTG_GINTMSK_SRQIM | USB_OTG_GINTMSK_OTGINT);
 8001146:	687b      	ldr	r3, [r7, #4]
 8001148:	699a      	ldr	r2, [r3, #24]
 800114a:	4b09      	ldr	r3, [pc, #36]	; (8001170 <USB_DevInit+0x298>)
 800114c:	4313      	orrs	r3, r2
 800114e:	687a      	ldr	r2, [r7, #4]
 8001150:	6193      	str	r3, [r2, #24]
  }

  return HAL_OK;
 8001152:	2300      	movs	r3, #0
}
 8001154:	4618      	mov	r0, r3
 8001156:	3710      	adds	r7, #16
 8001158:	46bd      	mov	sp, r7
 800115a:	e8bd 4080 	ldmia.w	sp!, {r7, lr}
 800115e:	b004      	add	sp, #16
 8001160:	4770      	bx	lr
 8001162:	bf00      	nop
 8001164:	00800100 	.word	0x00800100
 8001168:	00010003 	.word	0x00010003
 800116c:	803c3800 	.word	0x803c3800
 8001170:	40000004 	.word	0x40000004

08001174 <USB_FlushTxFifo>:
  *         This parameter can be a value from 1 to 15
            15 means Flush all Tx FIFOs
  * @retval HAL status
  */
HAL_StatusTypeDef USB_FlushTxFifo (USB_OTG_GlobalTypeDef *USBx, uint32_t num )
{
 8001174:	b480      	push	{r7}
 8001176:	b085      	sub	sp, #20
 8001178:	af00      	add	r7, sp, #0
 800117a:	6078      	str	r0, [r7, #4]
 800117c:	6039      	str	r1, [r7, #0]
  uint32_t count = 0;
 800117e:	2300      	movs	r3, #0
 8001180:	60fb      	str	r3, [r7, #12]

  USBx->GRSTCTL = ( USB_OTG_GRSTCTL_TXFFLSH |(uint32_t)( num << 6));
 8001182:	683b      	ldr	r3, [r7, #0]
 8001184:	019b      	lsls	r3, r3, #6
 8001186:	f043 0220 	orr.w	r2, r3, #32
 800118a:	687b      	ldr	r3, [r7, #4]
 800118c:	611a      	str	r2, [r3, #16]

  do
  {
    if (++count > 200000)
 800118e:	68fb      	ldr	r3, [r7, #12]
 8001190:	3301      	adds	r3, #1
 8001192:	60fb      	str	r3, [r7, #12]
 8001194:	68fb      	ldr	r3, [r7, #12]
 8001196:	4a09      	ldr	r2, [pc, #36]	; (80011bc <USB_FlushTxFifo+0x48>)
 8001198:	4293      	cmp	r3, r2
 800119a:	d901      	bls.n	80011a0 <USB_FlushTxFifo+0x2c>
    {
      return HAL_TIMEOUT;
 800119c:	2303      	movs	r3, #3
 800119e:	e006      	b.n	80011ae <USB_FlushTxFifo+0x3a>
    }
  }
  while ((USBx->GRSTCTL & USB_OTG_GRSTCTL_TXFFLSH) == USB_OTG_GRSTCTL_TXFFLSH);
 80011a0:	687b      	ldr	r3, [r7, #4]
 80011a2:	691b      	ldr	r3, [r3, #16]
 80011a4:	f003 0320 	and.w	r3, r3, #32
 80011a8:	2b20      	cmp	r3, #32
 80011aa:	d0f0      	beq.n	800118e <USB_FlushTxFifo+0x1a>

  return HAL_OK;
 80011ac:	2300      	movs	r3, #0
}
 80011ae:	4618      	mov	r0, r3
 80011b0:	3714      	adds	r7, #20
 80011b2:	46bd      	mov	sp, r7
 80011b4:	f85d 7b04 	ldr.w	r7, [sp], #4
 80011b8:	4770      	bx	lr
 80011ba:	bf00      	nop
 80011bc:	00030d40 	.word	0x00030d40

080011c0 <USB_FlushRxFifo>:
  * @brief  USB_FlushRxFifo : Flush Rx FIFO
  * @param  USBx  Selected device
  * @retval HAL status
  */
HAL_StatusTypeDef USB_FlushRxFifo(USB_OTG_GlobalTypeDef *USBx)
{
 80011c0:	b480      	push	{r7}
 80011c2:	b085      	sub	sp, #20
 80011c4:	af00      	add	r7, sp, #0
 80011c6:	6078      	str	r0, [r7, #4]
  uint32_t count = 0;
 80011c8:	2300      	movs	r3, #0
 80011ca:	60fb      	str	r3, [r7, #12]

  USBx->GRSTCTL = USB_OTG_GRSTCTL_RXFFLSH;
 80011cc:	687b      	ldr	r3, [r7, #4]
 80011ce:	2210      	movs	r2, #16
 80011d0:	611a      	str	r2, [r3, #16]

  do
  {
    if (++count > 200000)
 80011d2:	68fb      	ldr	r3, [r7, #12]
 80011d4:	3301      	adds	r3, #1
 80011d6:	60fb      	str	r3, [r7, #12]
 80011d8:	68fb      	ldr	r3, [r7, #12]
 80011da:	4a09      	ldr	r2, [pc, #36]	; (8001200 <USB_FlushRxFifo+0x40>)
 80011dc:	4293      	cmp	r3, r2
 80011de:	d901      	bls.n	80011e4 <USB_FlushRxFifo+0x24>
    {
      return HAL_TIMEOUT;
 80011e0:	2303      	movs	r3, #3
 80011e2:	e006      	b.n	80011f2 <USB_FlushRxFifo+0x32>
    }
  }
  while ((USBx->GRSTCTL & USB_OTG_GRSTCTL_RXFFLSH) == USB_OTG_GRSTCTL_RXFFLSH);
 80011e4:	687b      	ldr	r3, [r7, #4]
 80011e6:	691b      	ldr	r3, [r3, #16]
 80011e8:	f003 0310 	and.w	r3, r3, #16
 80011ec:	2b10      	cmp	r3, #16
 80011ee:	d0f0      	beq.n	80011d2 <USB_FlushRxFifo+0x12>

  return HAL_OK;
 80011f0:	2300      	movs	r3, #0
}
 80011f2:	4618      	mov	r0, r3
 80011f4:	3714      	adds	r7, #20
 80011f6:	46bd      	mov	sp, r7
 80011f8:	f85d 7b04 	ldr.w	r7, [sp], #4
 80011fc:	4770      	bx	lr
 80011fe:	bf00      	nop
 8001200:	00030d40 	.word	0x00030d40

08001204 <USB_SetDevSpeed>:
  *            @arg USB_OTG_SPEED_FULL: Full speed mode
  *            @arg USB_OTG_SPEED_LOW: Low speed mode
  * @retval  Hal status
  */
HAL_StatusTypeDef USB_SetDevSpeed(USB_OTG_GlobalTypeDef *USBx , uint8_t speed)
{
 8001204:	b480      	push	{r7}
 8001206:	b083      	sub	sp, #12
 8001208:	af00      	add	r7, sp, #0
 800120a:	6078      	str	r0, [r7, #4]
 800120c:	460b      	mov	r3, r1
 800120e:	70fb      	strb	r3, [r7, #3]
  USBx_DEVICE->DCFG |= speed;
 8001210:	687b      	ldr	r3, [r7, #4]
 8001212:	f503 6300 	add.w	r3, r3, #2048	; 0x800
 8001216:	4619      	mov	r1, r3
 8001218:	687b      	ldr	r3, [r7, #4]
 800121a:	f503 6300 	add.w	r3, r3, #2048	; 0x800
 800121e:	681a      	ldr	r2, [r3, #0]
 8001220:	78fb      	ldrb	r3, [r7, #3]
 8001222:	4313      	orrs	r3, r2
 8001224:	600b      	str	r3, [r1, #0]
  return HAL_OK;
 8001226:	2300      	movs	r3, #0
}
 8001228:	4618      	mov	r0, r3
 800122a:	370c      	adds	r7, #12
 800122c:	46bd      	mov	sp, r7
 800122e:	f85d 7b04 	ldr.w	r7, [sp], #4
 8001232:	4770      	bx	lr

08001234 <USB_ActivateEndpoint>:
  * @param  USBx  Selected device
  * @param  ep pointer to endpoint structure
  * @retval HAL status
  */
HAL_StatusTypeDef USB_ActivateEndpoint(USB_OTG_GlobalTypeDef *USBx, USB_OTG_EPTypeDef *ep)
{
 8001234:	b480      	push	{r7}
 8001236:	b083      	sub	sp, #12
 8001238:	af00      	add	r7, sp, #0
 800123a:	6078      	str	r0, [r7, #4]
 800123c:	6039      	str	r1, [r7, #0]
  if (ep->is_in == 1)
 800123e:	683b      	ldr	r3, [r7, #0]
 8001240:	785b      	ldrb	r3, [r3, #1]
 8001242:	2b01      	cmp	r3, #1
 8001244:	d13c      	bne.n	80012c0 <USB_ActivateEndpoint+0x8c>
  {
   USBx_DEVICE->DAINTMSK |= USB_OTG_DAINTMSK_IEPM & ((1 << (ep->num)));
 8001246:	687b      	ldr	r3, [r7, #4]
 8001248:	f503 6300 	add.w	r3, r3, #2048	; 0x800
 800124c:	4619      	mov	r1, r3
 800124e:	687b      	ldr	r3, [r7, #4]
 8001250:	f503 6300 	add.w	r3, r3, #2048	; 0x800
 8001254:	69da      	ldr	r2, [r3, #28]
 8001256:	683b      	ldr	r3, [r7, #0]
 8001258:	781b      	ldrb	r3, [r3, #0]
 800125a:	4618      	mov	r0, r3
 800125c:	2301      	movs	r3, #1
 800125e:	4083      	lsls	r3, r0
 8001260:	b29b      	uxth	r3, r3
 8001262:	4313      	orrs	r3, r2
 8001264:	61cb      	str	r3, [r1, #28]

    if (((USBx_INEP(ep->num)->DIEPCTL) & USB_OTG_DIEPCTL_USBAEP) == 0)
 8001266:	683b      	ldr	r3, [r7, #0]
 8001268:	781b      	ldrb	r3, [r3, #0]
 800126a:	015a      	lsls	r2, r3, #5
 800126c:	687b      	ldr	r3, [r7, #4]
 800126e:	4413      	add	r3, r2
 8001270:	f503 6310 	add.w	r3, r3, #2304	; 0x900
 8001274:	681b      	ldr	r3, [r3, #0]
 8001276:	f403 4300 	and.w	r3, r3, #32768	; 0x8000
 800127a:	2b00      	cmp	r3, #0
 800127c:	d158      	bne.n	8001330 <USB_ActivateEndpoint+0xfc>
    {
      USBx_INEP(ep->num)->DIEPCTL |= ((ep->maxpacket & USB_OTG_DIEPCTL_MPSIZ ) | (ep->type << 18 ) |\
 800127e:	683b      	ldr	r3, [r7, #0]
 8001280:	781b      	ldrb	r3, [r3, #0]
 8001282:	015a      	lsls	r2, r3, #5
 8001284:	687b      	ldr	r3, [r7, #4]
 8001286:	4413      	add	r3, r2
 8001288:	f503 6310 	add.w	r3, r3, #2304	; 0x900
 800128c:	4618      	mov	r0, r3
 800128e:	683b      	ldr	r3, [r7, #0]
 8001290:	781b      	ldrb	r3, [r3, #0]
 8001292:	015a      	lsls	r2, r3, #5
 8001294:	687b      	ldr	r3, [r7, #4]
 8001296:	4413      	add	r3, r2
 8001298:	f503 6310 	add.w	r3, r3, #2304	; 0x900
 800129c:	681a      	ldr	r2, [r3, #0]
 800129e:	683b      	ldr	r3, [r7, #0]
 80012a0:	689b      	ldr	r3, [r3, #8]
 80012a2:	f3c3 030a 	ubfx	r3, r3, #0, #11
 80012a6:	6839      	ldr	r1, [r7, #0]
 80012a8:	78c9      	ldrb	r1, [r1, #3]
 80012aa:	0489      	lsls	r1, r1, #18
 80012ac:	430b      	orrs	r3, r1
        ((ep->num) << 22 ) | (USB_OTG_DIEPCTL_SD0PID_SEVNFRM) | (USB_OTG_DIEPCTL_USBAEP));
 80012ae:	6839      	ldr	r1, [r7, #0]
 80012b0:	7809      	ldrb	r1, [r1, #0]
 80012b2:	0589      	lsls	r1, r1, #22
      USBx_INEP(ep->num)->DIEPCTL |= ((ep->maxpacket & USB_OTG_DIEPCTL_MPSIZ ) | (ep->type << 18 ) |\
 80012b4:	430b      	orrs	r3, r1
 80012b6:	431a      	orrs	r2, r3
 80012b8:	4b21      	ldr	r3, [pc, #132]	; (8001340 <USB_ActivateEndpoint+0x10c>)
 80012ba:	4313      	orrs	r3, r2
 80012bc:	6003      	str	r3, [r0, #0]
 80012be:	e037      	b.n	8001330 <USB_ActivateEndpoint+0xfc>
    }

  }
  else
  {
     USBx_DEVICE->DAINTMSK |= USB_OTG_DAINTMSK_OEPM & ((1 << (ep->num)) << 16);
 80012c0:	687b      	ldr	r3, [r7, #4]
 80012c2:	f503 6300 	add.w	r3, r3, #2048	; 0x800
 80012c6:	4619      	mov	r1, r3
 80012c8:	687b      	ldr	r3, [r7, #4]
 80012ca:	f503 6300 	add.w	r3, r3, #2048	; 0x800
 80012ce:	69db      	ldr	r3, [r3, #28]
 80012d0:	683a      	ldr	r2, [r7, #0]
 80012d2:	7812      	ldrb	r2, [r2, #0]
 80012d4:	4610      	mov	r0, r2
 80012d6:	2201      	movs	r2, #1
 80012d8:	4082      	lsls	r2, r0
 80012da:	0412      	lsls	r2, r2, #16
 80012dc:	4313      	orrs	r3, r2
 80012de:	61cb      	str	r3, [r1, #28]

    if (((USBx_OUTEP(ep->num)->DOEPCTL) & USB_OTG_DOEPCTL_USBAEP) == 0)
 80012e0:	683b      	ldr	r3, [r7, #0]
 80012e2:	781b      	ldrb	r3, [r3, #0]
 80012e4:	015a      	lsls	r2, r3, #5
 80012e6:	687b      	ldr	r3, [r7, #4]
 80012e8:	4413      	add	r3, r2
 80012ea:	f503 6330 	add.w	r3, r3, #2816	; 0xb00
 80012ee:	681b      	ldr	r3, [r3, #0]
 80012f0:	f403 4300 	and.w	r3, r3, #32768	; 0x8000
 80012f4:	2b00      	cmp	r3, #0
 80012f6:	d11b      	bne.n	8001330 <USB_ActivateEndpoint+0xfc>
    {
      USBx_OUTEP(ep->num)->DOEPCTL |= ((ep->maxpacket & USB_OTG_DOEPCTL_MPSIZ ) | (ep->type << 18 ) |\
 80012f8:	683b      	ldr	r3, [r7, #0]
 80012fa:	781b      	ldrb	r3, [r3, #0]
 80012fc:	015a      	lsls	r2, r3, #5
 80012fe:	687b      	ldr	r3, [r7, #4]
 8001300:	4413      	add	r3, r2
 8001302:	f503 6330 	add.w	r3, r3, #2816	; 0xb00
 8001306:	4618      	mov	r0, r3
 8001308:	683b      	ldr	r3, [r7, #0]
 800130a:	781b      	ldrb	r3, [r3, #0]
 800130c:	015a      	lsls	r2, r3, #5
 800130e:	687b      	ldr	r3, [r7, #4]
 8001310:	4413      	add	r3, r2
 8001312:	f503 6330 	add.w	r3, r3, #2816	; 0xb00
 8001316:	681a      	ldr	r2, [r3, #0]
 8001318:	683b      	ldr	r3, [r7, #0]
 800131a:	689b      	ldr	r3, [r3, #8]
 800131c:	f3c3 030a 	ubfx	r3, r3, #0, #11
 8001320:	6839      	ldr	r1, [r7, #0]
 8001322:	78c9      	ldrb	r1, [r1, #3]
 8001324:	0489      	lsls	r1, r1, #18
 8001326:	430b      	orrs	r3, r1
 8001328:	431a      	orrs	r2, r3
 800132a:	4b05      	ldr	r3, [pc, #20]	; (8001340 <USB_ActivateEndpoint+0x10c>)
 800132c:	4313      	orrs	r3, r2
 800132e:	6003      	str	r3, [r0, #0]
       (USB_OTG_DIEPCTL_SD0PID_SEVNFRM)| (USB_OTG_DOEPCTL_USBAEP));
    }
  }
  return HAL_OK;
 8001330:	2300      	movs	r3, #0
}
 8001332:	4618      	mov	r0, r3
 8001334:	370c      	adds	r7, #12
 8001336:	46bd      	mov	sp, r7
 8001338:	f85d 7b04 	ldr.w	r7, [sp], #4
 800133c:	4770      	bx	lr
 800133e:	bf00      	nop
 8001340:	10008000 	.word	0x10008000

08001344 <USB_DeactivateEndpoint>:
  * @param  USBx  Selected device
  * @param  ep pointer to endpoint structure
  * @retval HAL status
  */
HAL_StatusTypeDef USB_DeactivateEndpoint(USB_OTG_GlobalTypeDef *USBx, USB_OTG_EPTypeDef *ep)
{
 8001344:	b480      	push	{r7}
 8001346:	b083      	sub	sp, #12
 8001348:	af00      	add	r7, sp, #0
 800134a:	6078      	str	r0, [r7, #4]
 800134c:	6039      	str	r1, [r7, #0]
  /* Read DEPCTLn register */
  if (ep->is_in == 1)
 800134e:	683b      	ldr	r3, [r7, #0]
 8001350:	785b      	ldrb	r3, [r3, #1]
 8001352:	2b01      	cmp	r3, #1
 8001354:	d135      	bne.n	80013c2 <USB_DeactivateEndpoint+0x7e>
  {
   USBx_DEVICE->DEACHMSK &= ~(USB_OTG_DAINTMSK_IEPM & ((1 << (ep->num))));
 8001356:	687b      	ldr	r3, [r7, #4]
 8001358:	f503 6300 	add.w	r3, r3, #2048	; 0x800
 800135c:	4619      	mov	r1, r3
 800135e:	687b      	ldr	r3, [r7, #4]
 8001360:	f503 6300 	add.w	r3, r3, #2048	; 0x800
 8001364:	6bda      	ldr	r2, [r3, #60]	; 0x3c
 8001366:	683b      	ldr	r3, [r7, #0]
 8001368:	781b      	ldrb	r3, [r3, #0]
 800136a:	4618      	mov	r0, r3
 800136c:	2301      	movs	r3, #1
 800136e:	4083      	lsls	r3, r0
 8001370:	b29b      	uxth	r3, r3
 8001372:	43db      	mvns	r3, r3
 8001374:	4013      	ands	r3, r2
 8001376:	63cb      	str	r3, [r1, #60]	; 0x3c
   USBx_DEVICE->DAINTMSK &= ~(USB_OTG_DAINTMSK_IEPM & ((1 << (ep->num))));
 8001378:	687b      	ldr	r3, [r7, #4]
 800137a:	f503 6300 	add.w	r3, r3, #2048	; 0x800
 800137e:	4619      	mov	r1, r3
 8001380:	687b      	ldr	r3, [r7, #4]
 8001382:	f503 6300 	add.w	r3, r3, #2048	; 0x800
 8001386:	69da      	ldr	r2, [r3, #28]
 8001388:	683b      	ldr	r3, [r7, #0]
 800138a:	781b      	ldrb	r3, [r3, #0]
 800138c:	4618      	mov	r0, r3
 800138e:	2301      	movs	r3, #1
 8001390:	4083      	lsls	r3, r0
 8001392:	b29b      	uxth	r3, r3
 8001394:	43db      	mvns	r3, r3
 8001396:	4013      	ands	r3, r2
 8001398:	61cb      	str	r3, [r1, #28]
   USBx_INEP(ep->num)->DIEPCTL &= ~ USB_OTG_DIEPCTL_USBAEP;
 800139a:	683b      	ldr	r3, [r7, #0]
 800139c:	781b      	ldrb	r3, [r3, #0]
 800139e:	015a      	lsls	r2, r3, #5
 80013a0:	687b      	ldr	r3, [r7, #4]
 80013a2:	4413      	add	r3, r2
 80013a4:	f503 6310 	add.w	r3, r3, #2304	; 0x900
 80013a8:	4619      	mov	r1, r3
 80013aa:	683b      	ldr	r3, [r7, #0]
 80013ac:	781b      	ldrb	r3, [r3, #0]
 80013ae:	015a      	lsls	r2, r3, #5
 80013b0:	687b      	ldr	r3, [r7, #4]
 80013b2:	4413      	add	r3, r2
 80013b4:	f503 6310 	add.w	r3, r3, #2304	; 0x900
 80013b8:	681b      	ldr	r3, [r3, #0]
 80013ba:	f423 4300 	bic.w	r3, r3, #32768	; 0x8000
 80013be:	600b      	str	r3, [r1, #0]
 80013c0:	e034      	b.n	800142c <USB_DeactivateEndpoint+0xe8>
  }
  else
  {
     USBx_DEVICE->DEACHMSK &= ~(USB_OTG_DAINTMSK_OEPM & ((1 << (ep->num)) << 16));
 80013c2:	687b      	ldr	r3, [r7, #4]
 80013c4:	f503 6300 	add.w	r3, r3, #2048	; 0x800
 80013c8:	4619      	mov	r1, r3
 80013ca:	687b      	ldr	r3, [r7, #4]
 80013cc:	f503 6300 	add.w	r3, r3, #2048	; 0x800
 80013d0:	6bda      	ldr	r2, [r3, #60]	; 0x3c
 80013d2:	683b      	ldr	r3, [r7, #0]
 80013d4:	781b      	ldrb	r3, [r3, #0]
 80013d6:	4618      	mov	r0, r3
 80013d8:	2301      	movs	r3, #1
 80013da:	4083      	lsls	r3, r0
 80013dc:	041b      	lsls	r3, r3, #16
 80013de:	43db      	mvns	r3, r3
 80013e0:	4013      	ands	r3, r2
 80013e2:	63cb      	str	r3, [r1, #60]	; 0x3c
     USBx_DEVICE->DAINTMSK &= ~(USB_OTG_DAINTMSK_OEPM & ((1 << (ep->num)) << 16));
 80013e4:	687b      	ldr	r3, [r7, #4]
 80013e6:	f503 6300 	add.w	r3, r3, #2048	; 0x800
 80013ea:	4619      	mov	r1, r3
 80013ec:	687b      	ldr	r3, [r7, #4]
 80013ee:	f503 6300 	add.w	r3, r3, #2048	; 0x800
 80013f2:	69da      	ldr	r2, [r3, #28]
 80013f4:	683b      	ldr	r3, [r7, #0]
 80013f6:	781b      	ldrb	r3, [r3, #0]
 80013f8:	4618      	mov	r0, r3
 80013fa:	2301      	movs	r3, #1
 80013fc:	4083      	lsls	r3, r0
 80013fe:	041b      	lsls	r3, r3, #16
 8001400:	43db      	mvns	r3, r3
 8001402:	4013      	ands	r3, r2
 8001404:	61cb      	str	r3, [r1, #28]
     USBx_OUTEP(ep->num)->DOEPCTL &= ~USB_OTG_DOEPCTL_USBAEP;
 8001406:	683b      	ldr	r3, [r7, #0]
 8001408:	781b      	ldrb	r3, [r3, #0]
 800140a:	015a      	lsls	r2, r3, #5
 800140c:	687b      	ldr	r3, [r7, #4]
 800140e:	4413      	add	r3, r2
 8001410:	f503 6330 	add.w	r3, r3, #2816	; 0xb00
 8001414:	4619      	mov	r1, r3
 8001416:	683b      	ldr	r3, [r7, #0]
 8001418:	781b      	ldrb	r3, [r3, #0]
 800141a:	015a      	lsls	r2, r3, #5
 800141c:	687b      	ldr	r3, [r7, #4]
 800141e:	4413      	add	r3, r2
 8001420:	f503 6330 	add.w	r3, r3, #2816	; 0xb00
 8001424:	681b      	ldr	r3, [r3, #0]
 8001426:	f423 4300 	bic.w	r3, r3, #32768	; 0x8000
 800142a:	600b      	str	r3, [r1, #0]
  }
  return HAL_OK;
 800142c:	2300      	movs	r3, #0
}
 800142e:	4618      	mov	r0, r3
 8001430:	370c      	adds	r7, #12
 8001432:	46bd      	mov	sp, r7
 8001434:	f85d 7b04 	ldr.w	r7, [sp], #4
 8001438:	4770      	bx	lr
	...

0800143c <USB_EPStartXfer>:
  *           0 : DMA feature not used
  *           1 : DMA feature used
  * @retval HAL status
  */
HAL_StatusTypeDef USB_EPStartXfer(USB_OTG_GlobalTypeDef *USBx , USB_OTG_EPTypeDef *ep, uint8_t dma)
{
 800143c:	b580      	push	{r7, lr}
 800143e:	b088      	sub	sp, #32
 8001440:	af02      	add	r7, sp, #8
 8001442:	60f8      	str	r0, [r7, #12]
 8001444:	60b9      	str	r1, [r7, #8]
 8001446:	4613      	mov	r3, r2
 8001448:	71fb      	strb	r3, [r7, #7]
  uint16_t pktcnt = 0;
 800144a:	2300      	movs	r3, #0
 800144c:	82fb      	strh	r3, [r7, #22]

  /* IN endpoint */
  if (ep->is_in == 1)
 800144e:	68bb      	ldr	r3, [r7, #8]
 8001450:	785b      	ldrb	r3, [r3, #1]
 8001452:	2b01      	cmp	r3, #1
 8001454:	f040 8148 	bne.w	80016e8 <USB_EPStartXfer+0x2ac>
  {
    /* Zero Length Packet? */
    if (ep->xfer_len == 0)
 8001458:	68bb      	ldr	r3, [r7, #8]
 800145a:	695b      	ldr	r3, [r3, #20]
 800145c:	2b00      	cmp	r3, #0
 800145e:	d139      	bne.n	80014d4 <USB_EPStartXfer+0x98>
    {
      USBx_INEP(ep->num)->DIEPTSIZ &= ~(USB_OTG_DIEPTSIZ_PKTCNT);
 8001460:	68bb      	ldr	r3, [r7, #8]
 8001462:	781b      	ldrb	r3, [r3, #0]
 8001464:	015a      	lsls	r2, r3, #5
 8001466:	68fb      	ldr	r3, [r7, #12]
 8001468:	4413      	add	r3, r2
 800146a:	f503 6310 	add.w	r3, r3, #2304	; 0x900
 800146e:	4619      	mov	r1, r3
 8001470:	68bb      	ldr	r3, [r7, #8]
 8001472:	781b      	ldrb	r3, [r3, #0]
 8001474:	015a      	lsls	r2, r3, #5
 8001476:	68fb      	ldr	r3, [r7, #12]
 8001478:	4413      	add	r3, r2
 800147a:	f503 6310 	add.w	r3, r3, #2304	; 0x900
 800147e:	691a      	ldr	r2, [r3, #16]
 8001480:	4b96      	ldr	r3, [pc, #600]	; (80016dc <USB_EPStartXfer+0x2a0>)
 8001482:	4013      	ands	r3, r2
 8001484:	610b      	str	r3, [r1, #16]
      USBx_INEP(ep->num)->DIEPTSIZ |= (USB_OTG_DIEPTSIZ_PKTCNT & (1 << 19)) ;
 8001486:	68bb      	ldr	r3, [r7, #8]
 8001488:	781b      	ldrb	r3, [r3, #0]
 800148a:	015a      	lsls	r2, r3, #5
 800148c:	68fb      	ldr	r3, [r7, #12]
 800148e:	4413      	add	r3, r2
 8001490:	f503 6310 	add.w	r3, r3, #2304	; 0x900
 8001494:	4619      	mov	r1, r3
 8001496:	68bb      	ldr	r3, [r7, #8]
 8001498:	781b      	ldrb	r3, [r3, #0]
 800149a:	015a      	lsls	r2, r3, #5
 800149c:	68fb      	ldr	r3, [r7, #12]
 800149e:	4413      	add	r3, r2
 80014a0:	f503 6310 	add.w	r3, r3, #2304	; 0x900
 80014a4:	691b      	ldr	r3, [r3, #16]
 80014a6:	f443 2300 	orr.w	r3, r3, #524288	; 0x80000
 80014aa:	610b      	str	r3, [r1, #16]
      USBx_INEP(ep->num)->DIEPTSIZ &= ~(USB_OTG_DIEPTSIZ_XFRSIZ);
 80014ac:	68bb      	ldr	r3, [r7, #8]
 80014ae:	781b      	ldrb	r3, [r3, #0]
 80014b0:	015a      	lsls	r2, r3, #5
 80014b2:	68fb      	ldr	r3, [r7, #12]
 80014b4:	4413      	add	r3, r2
 80014b6:	f503 6310 	add.w	r3, r3, #2304	; 0x900
 80014ba:	4619      	mov	r1, r3
 80014bc:	68bb      	ldr	r3, [r7, #8]
 80014be:	781b      	ldrb	r3, [r3, #0]
 80014c0:	015a      	lsls	r2, r3, #5
 80014c2:	68fb      	ldr	r3, [r7, #12]
 80014c4:	4413      	add	r3, r2
 80014c6:	f503 6310 	add.w	r3, r3, #2304	; 0x900
 80014ca:	691a      	ldr	r2, [r3, #16]
 80014cc:	4b84      	ldr	r3, [pc, #528]	; (80016e0 <USB_EPStartXfer+0x2a4>)
 80014ce:	4013      	ands	r3, r2
 80014d0:	610b      	str	r3, [r1, #16]
 80014d2:	e084      	b.n	80015de <USB_EPStartXfer+0x1a2>
      /* Program the transfer size and packet count
      * as follows: xfersize = N * maxpacket +
      * short_packet pktcnt = N + (short_packet
      * exist ? 1 : 0)
      */
      USBx_INEP(ep->num)->DIEPTSIZ &= ~(USB_OTG_DIEPTSIZ_XFRSIZ);
 80014d4:	68bb      	ldr	r3, [r7, #8]
 80014d6:	781b      	ldrb	r3, [r3, #0]
 80014d8:	015a      	lsls	r2, r3, #5
 80014da:	68fb      	ldr	r3, [r7, #12]
 80014dc:	4413      	add	r3, r2
 80014de:	f503 6310 	add.w	r3, r3, #2304	; 0x900
 80014e2:	4619      	mov	r1, r3
 80014e4:	68bb      	ldr	r3, [r7, #8]
 80014e6:	781b      	ldrb	r3, [r3, #0]
 80014e8:	015a      	lsls	r2, r3, #5
 80014ea:	68fb      	ldr	r3, [r7, #12]
 80014ec:	4413      	add	r3, r2
 80014ee:	f503 6310 	add.w	r3, r3, #2304	; 0x900
 80014f2:	691a      	ldr	r2, [r3, #16]
 80014f4:	4b7a      	ldr	r3, [pc, #488]	; (80016e0 <USB_EPStartXfer+0x2a4>)
 80014f6:	4013      	ands	r3, r2
 80014f8:	610b      	str	r3, [r1, #16]
      USBx_INEP(ep->num)->DIEPTSIZ &= ~(USB_OTG_DIEPTSIZ_PKTCNT);
 80014fa:	68bb      	ldr	r3, [r7, #8]
 80014fc:	781b      	ldrb	r3, [r3, #0]
 80014fe:	015a      	lsls	r2, r3, #5
 8001500:	68fb      	ldr	r3, [r7, #12]
 8001502:	4413      	add	r3, r2
 8001504:	f503 6310 	add.w	r3, r3, #2304	; 0x900
 8001508:	4619      	mov	r1, r3
 800150a:	68bb      	ldr	r3, [r7, #8]
 800150c:	781b      	ldrb	r3, [r3, #0]
 800150e:	015a      	lsls	r2, r3, #5
 8001510:	68fb      	ldr	r3, [r7, #12]
 8001512:	4413      	add	r3, r2
 8001514:	f503 6310 	add.w	r3, r3, #2304	; 0x900
 8001518:	691a      	ldr	r2, [r3, #16]
 800151a:	4b70      	ldr	r3, [pc, #448]	; (80016dc <USB_EPStartXfer+0x2a0>)
 800151c:	4013      	ands	r3, r2
 800151e:	610b      	str	r3, [r1, #16]
      USBx_INEP(ep->num)->DIEPTSIZ |= (USB_OTG_DIEPTSIZ_PKTCNT & (((ep->xfer_len + ep->maxpacket -1)/ ep->maxpacket) << 19)) ;
 8001520:	68bb      	ldr	r3, [r7, #8]
 8001522:	781b      	ldrb	r3, [r3, #0]
 8001524:	015a      	lsls	r2, r3, #5
 8001526:	68fb      	ldr	r3, [r7, #12]
 8001528:	4413      	add	r3, r2
 800152a:	f503 6310 	add.w	r3, r3, #2304	; 0x900
 800152e:	4618      	mov	r0, r3
 8001530:	68bb      	ldr	r3, [r7, #8]
 8001532:	781b      	ldrb	r3, [r3, #0]
 8001534:	015a      	lsls	r2, r3, #5
 8001536:	68fb      	ldr	r3, [r7, #12]
 8001538:	4413      	add	r3, r2
 800153a:	f503 6310 	add.w	r3, r3, #2304	; 0x900
 800153e:	691a      	ldr	r2, [r3, #16]
 8001540:	68bb      	ldr	r3, [r7, #8]
 8001542:	6959      	ldr	r1, [r3, #20]
 8001544:	68bb      	ldr	r3, [r7, #8]
 8001546:	689b      	ldr	r3, [r3, #8]
 8001548:	440b      	add	r3, r1
 800154a:	1e59      	subs	r1, r3, #1
 800154c:	68bb      	ldr	r3, [r7, #8]
 800154e:	689b      	ldr	r3, [r3, #8]
 8001550:	fbb1 f3f3 	udiv	r3, r1, r3
 8001554:	04d9      	lsls	r1, r3, #19
 8001556:	4b63      	ldr	r3, [pc, #396]	; (80016e4 <USB_EPStartXfer+0x2a8>)
 8001558:	400b      	ands	r3, r1
 800155a:	4313      	orrs	r3, r2
 800155c:	6103      	str	r3, [r0, #16]
      USBx_INEP(ep->num)->DIEPTSIZ |= (USB_OTG_DIEPTSIZ_XFRSIZ & ep->xfer_len);
 800155e:	68bb      	ldr	r3, [r7, #8]
 8001560:	781b      	ldrb	r3, [r3, #0]
 8001562:	015a      	lsls	r2, r3, #5
 8001564:	68fb      	ldr	r3, [r7, #12]
 8001566:	4413      	add	r3, r2
 8001568:	f503 6310 	add.w	r3, r3, #2304	; 0x900
 800156c:	4619      	mov	r1, r3
 800156e:	68bb      	ldr	r3, [r7, #8]
 8001570:	781b      	ldrb	r3, [r3, #0]
 8001572:	015a      	lsls	r2, r3, #5
 8001574:	68fb      	ldr	r3, [r7, #12]
 8001576:	4413      	add	r3, r2
 8001578:	f503 6310 	add.w	r3, r3, #2304	; 0x900
 800157c:	691a      	ldr	r2, [r3, #16]
 800157e:	68bb      	ldr	r3, [r7, #8]
 8001580:	695b      	ldr	r3, [r3, #20]
 8001582:	f3c3 0312 	ubfx	r3, r3, #0, #19
 8001586:	4313      	orrs	r3, r2
 8001588:	610b      	str	r3, [r1, #16]

      if (ep->type == EP_TYPE_ISOC)
 800158a:	68bb      	ldr	r3, [r7, #8]
 800158c:	78db      	ldrb	r3, [r3, #3]
 800158e:	2b01      	cmp	r3, #1
 8001590:	d125      	bne.n	80015de <USB_EPStartXfer+0x1a2>
      {
        USBx_INEP(ep->num)->DIEPTSIZ &= ~(USB_OTG_DIEPTSIZ_MULCNT);
 8001592:	68bb      	ldr	r3, [r7, #8]
 8001594:	781b      	ldrb	r3, [r3, #0]
 8001596:	015a      	lsls	r2, r3, #5
 8001598:	68fb      	ldr	r3, [r7, #12]
 800159a:	4413      	add	r3, r2
 800159c:	f503 6310 	add.w	r3, r3, #2304	; 0x900
 80015a0:	4619      	mov	r1, r3
 80015a2:	68bb      	ldr	r3, [r7, #8]
 80015a4:	781b      	ldrb	r3, [r3, #0]
 80015a6:	015a      	lsls	r2, r3, #5
 80015a8:	68fb      	ldr	r3, [r7, #12]
 80015aa:	4413      	add	r3, r2
 80015ac:	f503 6310 	add.w	r3, r3, #2304	; 0x900
 80015b0:	691b      	ldr	r3, [r3, #16]
 80015b2:	f023 43c0 	bic.w	r3, r3, #1610612736	; 0x60000000
 80015b6:	610b      	str	r3, [r1, #16]
        USBx_INEP(ep->num)->DIEPTSIZ |= (USB_OTG_DIEPTSIZ_MULCNT & (1 << 29));
 80015b8:	68bb      	ldr	r3, [r7, #8]
 80015ba:	781b      	ldrb	r3, [r3, #0]
 80015bc:	015a      	lsls	r2, r3, #5
 80015be:	68fb      	ldr	r3, [r7, #12]
 80015c0:	4413      	add	r3, r2
 80015c2:	f503 6310 	add.w	r3, r3, #2304	; 0x900
 80015c6:	4619      	mov	r1, r3
 80015c8:	68bb      	ldr	r3, [r7, #8]
 80015ca:	781b      	ldrb	r3, [r3, #0]
 80015cc:	015a      	lsls	r2, r3, #5
 80015ce:	68fb      	ldr	r3, [r7, #12]
 80015d0:	4413      	add	r3, r2
 80015d2:	f503 6310 	add.w	r3, r3, #2304	; 0x900
 80015d6:	691b      	ldr	r3, [r3, #16]
 80015d8:	f043 5300 	orr.w	r3, r3, #536870912	; 0x20000000
 80015dc:	610b      	str	r3, [r1, #16]
      }
    }

    if (dma == 1)
 80015de:	79fb      	ldrb	r3, [r7, #7]
 80015e0:	2b01      	cmp	r3, #1
 80015e2:	d10b      	bne.n	80015fc <USB_EPStartXfer+0x1c0>
    {
      USBx_INEP(ep->num)->DIEPDMA = (uint32_t)(ep->dma_addr);
 80015e4:	68bb      	ldr	r3, [r7, #8]
 80015e6:	781b      	ldrb	r3, [r3, #0]
 80015e8:	015a      	lsls	r2, r3, #5
 80015ea:	68fb      	ldr	r3, [r7, #12]
 80015ec:	4413      	add	r3, r2
 80015ee:	f503 6310 	add.w	r3, r3, #2304	; 0x900
 80015f2:	461a      	mov	r2, r3
 80015f4:	68bb      	ldr	r3, [r7, #8]
 80015f6:	691b      	ldr	r3, [r3, #16]
 80015f8:	6153      	str	r3, [r2, #20]
 80015fa:	e016      	b.n	800162a <USB_EPStartXfer+0x1ee>
    }
    else
    {
      if (ep->type != EP_TYPE_ISOC)
 80015fc:	68bb      	ldr	r3, [r7, #8]
 80015fe:	78db      	ldrb	r3, [r3, #3]
 8001600:	2b01      	cmp	r3, #1
 8001602:	d012      	beq.n	800162a <USB_EPStartXfer+0x1ee>
      {
        /* Enable the Tx FIFO Empty Interrupt for this EP */
        if (ep->xfer_len > 0)
 8001604:	68bb      	ldr	r3, [r7, #8]
 8001606:	695b      	ldr	r3, [r3, #20]
 8001608:	2b00      	cmp	r3, #0
 800160a:	d00e      	beq.n	800162a <USB_EPStartXfer+0x1ee>
        {
          USBx_DEVICE->DIEPEMPMSK |= 1 << ep->num;
 800160c:	68fb      	ldr	r3, [r7, #12]
 800160e:	f503 6300 	add.w	r3, r3, #2048	; 0x800
 8001612:	4619      	mov	r1, r3
 8001614:	68fb      	ldr	r3, [r7, #12]
 8001616:	f503 6300 	add.w	r3, r3, #2048	; 0x800
 800161a:	6b5b      	ldr	r3, [r3, #52]	; 0x34
 800161c:	68ba      	ldr	r2, [r7, #8]
 800161e:	7812      	ldrb	r2, [r2, #0]
 8001620:	4610      	mov	r0, r2
 8001622:	2201      	movs	r2, #1
 8001624:	4082      	lsls	r2, r0
 8001626:	4313      	orrs	r3, r2
 8001628:	634b      	str	r3, [r1, #52]	; 0x34
        }
      }
    }

    if (ep->type == EP_TYPE_ISOC)
 800162a:	68bb      	ldr	r3, [r7, #8]
 800162c:	78db      	ldrb	r3, [r3, #3]
 800162e:	2b01      	cmp	r3, #1
 8001630:	d12e      	bne.n	8001690 <USB_EPStartXfer+0x254>
    {
      if ((USBx_DEVICE->DSTS & ( 1 << 8 )) == 0)
 8001632:	68fb      	ldr	r3, [r7, #12]
 8001634:	f503 6300 	add.w	r3, r3, #2048	; 0x800
 8001638:	689b      	ldr	r3, [r3, #8]
 800163a:	f403 7380 	and.w	r3, r3, #256	; 0x100
 800163e:	2b00      	cmp	r3, #0
 8001640:	d113      	bne.n	800166a <USB_EPStartXfer+0x22e>
      {
        USBx_INEP(ep->num)->DIEPCTL |= USB_OTG_DIEPCTL_SODDFRM;
 8001642:	68bb      	ldr	r3, [r7, #8]
 8001644:	781b      	ldrb	r3, [r3, #0]
 8001646:	015a      	lsls	r2, r3, #5
 8001648:	68fb      	ldr	r3, [r7, #12]
 800164a:	4413      	add	r3, r2
 800164c:	f503 6310 	add.w	r3, r3, #2304	; 0x900
 8001650:	4619      	mov	r1, r3
 8001652:	68bb      	ldr	r3, [r7, #8]
 8001654:	781b      	ldrb	r3, [r3, #0]
 8001656:	015a      	lsls	r2, r3, #5
 8001658:	68fb      	ldr	r3, [r7, #12]
 800165a:	4413      	add	r3, r2
 800165c:	f503 6310 	add.w	r3, r3, #2304	; 0x900
 8001660:	681b      	ldr	r3, [r3, #0]
 8001662:	f043 5300 	orr.w	r3, r3, #536870912	; 0x20000000
 8001666:	600b      	str	r3, [r1, #0]
 8001668:	e012      	b.n	8001690 <USB_EPStartXfer+0x254>
      }
      else
      {
        USBx_INEP(ep->num)->DIEPCTL |= USB_OTG_DIEPCTL_SD0PID_SEVNFRM;
 800166a:	68bb      	ldr	r3, [r7, #8]
 800166c:	781b      	ldrb	r3, [r3, #0]
 800166e:	015a      	lsls	r2, r3, #5
 8001670:	68fb      	ldr	r3, [r7, #12]
 8001672:	4413      	add	r3, r2
 8001674:	f503 6310 	add.w	r3, r3, #2304	; 0x900
 8001678:	4619      	mov	r1, r3
 800167a:	68bb      	ldr	r3, [r7, #8]
 800167c:	781b      	ldrb	r3, [r3, #0]
 800167e:	015a      	lsls	r2, r3, #5
 8001680:	68fb      	ldr	r3, [r7, #12]
 8001682:	4413      	add	r3, r2
 8001684:	f503 6310 	add.w	r3, r3, #2304	; 0x900
 8001688:	681b      	ldr	r3, [r3, #0]
 800168a:	f043 5380 	orr.w	r3, r3, #268435456	; 0x10000000
 800168e:	600b      	str	r3, [r1, #0]
      }
    }

    /* EP enable, IN data in FIFO */
    USBx_INEP(ep->num)->DIEPCTL |= (USB_OTG_DIEPCTL_CNAK | USB_OTG_DIEPCTL_EPENA);
 8001690:	68bb      	ldr	r3, [r7, #8]
 8001692:	781b      	ldrb	r3, [r3, #0]
 8001694:	015a      	lsls	r2, r3, #5
 8001696:	68fb      	ldr	r3, [r7, #12]
 8001698:	4413      	add	r3, r2
 800169a:	f503 6310 	add.w	r3, r3, #2304	; 0x900
 800169e:	4619      	mov	r1, r3
 80016a0:	68bb      	ldr	r3, [r7, #8]
 80016a2:	781b      	ldrb	r3, [r3, #0]
 80016a4:	015a      	lsls	r2, r3, #5
 80016a6:	68fb      	ldr	r3, [r7, #12]
 80016a8:	4413      	add	r3, r2
 80016aa:	f503 6310 	add.w	r3, r3, #2304	; 0x900
 80016ae:	681b      	ldr	r3, [r3, #0]
 80016b0:	f043 4304 	orr.w	r3, r3, #2214592512	; 0x84000000
 80016b4:	600b      	str	r3, [r1, #0]

    if (ep->type == EP_TYPE_ISOC)
 80016b6:	68bb      	ldr	r3, [r7, #8]
 80016b8:	78db      	ldrb	r3, [r3, #3]
 80016ba:	2b01      	cmp	r3, #1
 80016bc:	f040 80f7 	bne.w	80018ae <USB_EPStartXfer+0x472>
    {
      USB_WritePacket(USBx, ep->xfer_buff, ep->num, ep->xfer_len, dma);
 80016c0:	68bb      	ldr	r3, [r7, #8]
 80016c2:	68d9      	ldr	r1, [r3, #12]
 80016c4:	68bb      	ldr	r3, [r7, #8]
 80016c6:	781a      	ldrb	r2, [r3, #0]
 80016c8:	68bb      	ldr	r3, [r7, #8]
 80016ca:	695b      	ldr	r3, [r3, #20]
 80016cc:	b298      	uxth	r0, r3
 80016ce:	79fb      	ldrb	r3, [r7, #7]
 80016d0:	9300      	str	r3, [sp, #0]
 80016d2:	4603      	mov	r3, r0
 80016d4:	68f8      	ldr	r0, [r7, #12]
 80016d6:	f000 fa51 	bl	8001b7c <USB_WritePacket>
 80016da:	e0e8      	b.n	80018ae <USB_EPStartXfer+0x472>
 80016dc:	e007ffff 	.word	0xe007ffff
 80016e0:	fff80000 	.word	0xfff80000
 80016e4:	1ff80000 	.word	0x1ff80000
  {
    /* Program the transfer size and packet count as follows:
    * pktcnt = N
    * xfersize = N * maxpacket
    */
    USBx_OUTEP(ep->num)->DOEPTSIZ &= ~(USB_OTG_DOEPTSIZ_XFRSIZ);
 80016e8:	68bb      	ldr	r3, [r7, #8]
 80016ea:	781b      	ldrb	r3, [r3, #0]
 80016ec:	015a      	lsls	r2, r3, #5
 80016ee:	68fb      	ldr	r3, [r7, #12]
 80016f0:	4413      	add	r3, r2
 80016f2:	f503 6330 	add.w	r3, r3, #2816	; 0xb00
 80016f6:	4619      	mov	r1, r3
 80016f8:	68bb      	ldr	r3, [r7, #8]
 80016fa:	781b      	ldrb	r3, [r3, #0]
 80016fc:	015a      	lsls	r2, r3, #5
 80016fe:	68fb      	ldr	r3, [r7, #12]
 8001700:	4413      	add	r3, r2
 8001702:	f503 6330 	add.w	r3, r3, #2816	; 0xb00
 8001706:	691a      	ldr	r2, [r3, #16]
 8001708:	4b6b      	ldr	r3, [pc, #428]	; (80018b8 <USB_EPStartXfer+0x47c>)
 800170a:	4013      	ands	r3, r2
 800170c:	610b      	str	r3, [r1, #16]
    USBx_OUTEP(ep->num)->DOEPTSIZ &= ~(USB_OTG_DOEPTSIZ_PKTCNT);
 800170e:	68bb      	ldr	r3, [r7, #8]
 8001710:	781b      	ldrb	r3, [r3, #0]
 8001712:	015a      	lsls	r2, r3, #5
 8001714:	68fb      	ldr	r3, [r7, #12]
 8001716:	4413      	add	r3, r2
 8001718:	f503 6330 	add.w	r3, r3, #2816	; 0xb00
 800171c:	4619      	mov	r1, r3
 800171e:	68bb      	ldr	r3, [r7, #8]
 8001720:	781b      	ldrb	r3, [r3, #0]
 8001722:	015a      	lsls	r2, r3, #5
 8001724:	68fb      	ldr	r3, [r7, #12]
 8001726:	4413      	add	r3, r2
 8001728:	f503 6330 	add.w	r3, r3, #2816	; 0xb00
 800172c:	691a      	ldr	r2, [r3, #16]
 800172e:	4b63      	ldr	r3, [pc, #396]	; (80018bc <USB_EPStartXfer+0x480>)
 8001730:	4013      	ands	r3, r2
 8001732:	610b      	str	r3, [r1, #16]

    if (ep->xfer_len == 0)
 8001734:	68bb      	ldr	r3, [r7, #8]
 8001736:	695b      	ldr	r3, [r3, #20]
 8001738:	2b00      	cmp	r3, #0
 800173a:	d129      	bne.n	8001790 <USB_EPStartXfer+0x354>
    {
      USBx_OUTEP(ep->num)->DOEPTSIZ |= (USB_OTG_DOEPTSIZ_XFRSIZ & ep->maxpacket);
 800173c:	68bb      	ldr	r3, [r7, #8]
 800173e:	781b      	ldrb	r3, [r3, #0]
 8001740:	015a      	lsls	r2, r3, #5
 8001742:	68fb      	ldr	r3, [r7, #12]
 8001744:	4413      	add	r3, r2
 8001746:	f503 6330 	add.w	r3, r3, #2816	; 0xb00
 800174a:	4619      	mov	r1, r3
 800174c:	68bb      	ldr	r3, [r7, #8]
 800174e:	781b      	ldrb	r3, [r3, #0]
 8001750:	015a      	lsls	r2, r3, #5
 8001752:	68fb      	ldr	r3, [r7, #12]
 8001754:	4413      	add	r3, r2
 8001756:	f503 6330 	add.w	r3, r3, #2816	; 0xb00
 800175a:	691a      	ldr	r2, [r3, #16]
 800175c:	68bb      	ldr	r3, [r7, #8]
 800175e:	689b      	ldr	r3, [r3, #8]
 8001760:	f3c3 0312 	ubfx	r3, r3, #0, #19
 8001764:	4313      	orrs	r3, r2
 8001766:	610b      	str	r3, [r1, #16]
      USBx_OUTEP(ep->num)->DOEPTSIZ |= (USB_OTG_DOEPTSIZ_PKTCNT & (1 << 19)) ;
 8001768:	68bb      	ldr	r3, [r7, #8]
 800176a:	781b      	ldrb	r3, [r3, #0]
 800176c:	015a      	lsls	r2, r3, #5
 800176e:	68fb      	ldr	r3, [r7, #12]
 8001770:	4413      	add	r3, r2
 8001772:	f503 6330 	add.w	r3, r3, #2816	; 0xb00
 8001776:	4619      	mov	r1, r3
 8001778:	68bb      	ldr	r3, [r7, #8]
 800177a:	781b      	ldrb	r3, [r3, #0]
 800177c:	015a      	lsls	r2, r3, #5
 800177e:	68fb      	ldr	r3, [r7, #12]
 8001780:	4413      	add	r3, r2
 8001782:	f503 6330 	add.w	r3, r3, #2816	; 0xb00
 8001786:	691b      	ldr	r3, [r3, #16]
 8001788:	f443 2300 	orr.w	r3, r3, #524288	; 0x80000
 800178c:	610b      	str	r3, [r1, #16]
 800178e:	e03a      	b.n	8001806 <USB_EPStartXfer+0x3ca>
    }
    else
    {
      pktcnt = (ep->xfer_len + ep->maxpacket -1)/ ep->maxpacket;
 8001790:	68bb      	ldr	r3, [r7, #8]
 8001792:	695a      	ldr	r2, [r3, #20]
 8001794:	68bb      	ldr	r3, [r7, #8]
 8001796:	689b      	ldr	r3, [r3, #8]
 8001798:	4413      	add	r3, r2
 800179a:	1e5a      	subs	r2, r3, #1
 800179c:	68bb      	ldr	r3, [r7, #8]
 800179e:	689b      	ldr	r3, [r3, #8]
 80017a0:	fbb2 f3f3 	udiv	r3, r2, r3
 80017a4:	82fb      	strh	r3, [r7, #22]
      USBx_OUTEP(ep->num)->DOEPTSIZ |= (USB_OTG_DOEPTSIZ_PKTCNT & (pktcnt << 19));
 80017a6:	68bb      	ldr	r3, [r7, #8]
 80017a8:	781b      	ldrb	r3, [r3, #0]
 80017aa:	015a      	lsls	r2, r3, #5
 80017ac:	68fb      	ldr	r3, [r7, #12]
 80017ae:	4413      	add	r3, r2
 80017b0:	f503 6330 	add.w	r3, r3, #2816	; 0xb00
 80017b4:	4619      	mov	r1, r3
 80017b6:	68bb      	ldr	r3, [r7, #8]
 80017b8:	781b      	ldrb	r3, [r3, #0]
 80017ba:	015a      	lsls	r2, r3, #5
 80017bc:	68fb      	ldr	r3, [r7, #12]
 80017be:	4413      	add	r3, r2
 80017c0:	f503 6330 	add.w	r3, r3, #2816	; 0xb00
 80017c4:	691a      	ldr	r2, [r3, #16]
 80017c6:	8afb      	ldrh	r3, [r7, #22]
 80017c8:	04db      	lsls	r3, r3, #19
 80017ca:	4618      	mov	r0, r3
 80017cc:	4b3c      	ldr	r3, [pc, #240]	; (80018c0 <USB_EPStartXfer+0x484>)
 80017ce:	4003      	ands	r3, r0
 80017d0:	4313      	orrs	r3, r2
 80017d2:	610b      	str	r3, [r1, #16]
      USBx_OUTEP(ep->num)->DOEPTSIZ |= (USB_OTG_DOEPTSIZ_XFRSIZ & (ep->maxpacket * pktcnt));
 80017d4:	68bb      	ldr	r3, [r7, #8]
 80017d6:	781b      	ldrb	r3, [r3, #0]
 80017d8:	015a      	lsls	r2, r3, #5
 80017da:	68fb      	ldr	r3, [r7, #12]
 80017dc:	4413      	add	r3, r2
 80017de:	f503 6330 	add.w	r3, r3, #2816	; 0xb00
 80017e2:	4618      	mov	r0, r3
 80017e4:	68bb      	ldr	r3, [r7, #8]
 80017e6:	781b      	ldrb	r3, [r3, #0]
 80017e8:	015a      	lsls	r2, r3, #5
 80017ea:	68fb      	ldr	r3, [r7, #12]
 80017ec:	4413      	add	r3, r2
 80017ee:	f503 6330 	add.w	r3, r3, #2816	; 0xb00
 80017f2:	691a      	ldr	r2, [r3, #16]
 80017f4:	68bb      	ldr	r3, [r7, #8]
 80017f6:	689b      	ldr	r3, [r3, #8]
 80017f8:	8af9      	ldrh	r1, [r7, #22]
 80017fa:	fb01 f303 	mul.w	r3, r1, r3
 80017fe:	f3c3 0312 	ubfx	r3, r3, #0, #19
 8001802:	4313      	orrs	r3, r2
 8001804:	6103      	str	r3, [r0, #16]
    }

    if (dma == 1)
 8001806:	79fb      	ldrb	r3, [r7, #7]
 8001808:	2b01      	cmp	r3, #1
 800180a:	d10a      	bne.n	8001822 <USB_EPStartXfer+0x3e6>
    {
      USBx_OUTEP(ep->num)->DOEPDMA = (uint32_t)ep->xfer_buff;
 800180c:	68bb      	ldr	r3, [r7, #8]
 800180e:	781b      	ldrb	r3, [r3, #0]
 8001810:	015a      	lsls	r2, r3, #5
 8001812:	68fb      	ldr	r3, [r7, #12]
 8001814:	4413      	add	r3, r2
 8001816:	f503 6330 	add.w	r3, r3, #2816	; 0xb00
 800181a:	461a      	mov	r2, r3
 800181c:	68bb      	ldr	r3, [r7, #8]
 800181e:	68db      	ldr	r3, [r3, #12]
 8001820:	6153      	str	r3, [r2, #20]
    }

    if (ep->type == EP_TYPE_ISOC)
 8001822:	68bb      	ldr	r3, [r7, #8]
 8001824:	78db      	ldrb	r3, [r3, #3]
 8001826:	2b01      	cmp	r3, #1
 8001828:	d12e      	bne.n	8001888 <USB_EPStartXfer+0x44c>
    {
      if ((USBx_DEVICE->DSTS & ( 1 << 8 )) == 0)
 800182a:	68fb      	ldr	r3, [r7, #12]
 800182c:	f503 6300 	add.w	r3, r3, #2048	; 0x800
 8001830:	689b      	ldr	r3, [r3, #8]
 8001832:	f403 7380 	and.w	r3, r3, #256	; 0x100
 8001836:	2b00      	cmp	r3, #0
 8001838:	d113      	bne.n	8001862 <USB_EPStartXfer+0x426>
      {
        USBx_OUTEP(ep->num)->DOEPCTL |= USB_OTG_DOEPCTL_SODDFRM;
 800183a:	68bb      	ldr	r3, [r7, #8]
 800183c:	781b      	ldrb	r3, [r3, #0]
 800183e:	015a      	lsls	r2, r3, #5
 8001840:	68fb      	ldr	r3, [r7, #12]
 8001842:	4413      	add	r3, r2
 8001844:	f503 6330 	add.w	r3, r3, #2816	; 0xb00
 8001848:	4619      	mov	r1, r3
 800184a:	68bb      	ldr	r3, [r7, #8]
 800184c:	781b      	ldrb	r3, [r3, #0]
 800184e:	015a      	lsls	r2, r3, #5
 8001850:	68fb      	ldr	r3, [r7, #12]
 8001852:	4413      	add	r3, r2
 8001854:	f503 6330 	add.w	r3, r3, #2816	; 0xb00
 8001858:	681b      	ldr	r3, [r3, #0]
 800185a:	f043 5300 	orr.w	r3, r3, #536870912	; 0x20000000
 800185e:	600b      	str	r3, [r1, #0]
 8001860:	e012      	b.n	8001888 <USB_EPStartXfer+0x44c>
      }
      else
      {
        USBx_OUTEP(ep->num)->DOEPCTL |= USB_OTG_DOEPCTL_SD0PID_SEVNFRM;
 8001862:	68bb      	ldr	r3, [r7, #8]
 8001864:	781b      	ldrb	r3, [r3, #0]
 8001866:	015a      	lsls	r2, r3, #5
 8001868:	68fb      	ldr	r3, [r7, #12]
 800186a:	4413      	add	r3, r2
 800186c:	f503 6330 	add.w	r3, r3, #2816	; 0xb00
 8001870:	4619      	mov	r1, r3
 8001872:	68bb      	ldr	r3, [r7, #8]
 8001874:	781b      	ldrb	r3, [r3, #0]
 8001876:	015a      	lsls	r2, r3, #5
 8001878:	68fb      	ldr	r3, [r7, #12]
 800187a:	4413      	add	r3, r2
 800187c:	f503 6330 	add.w	r3, r3, #2816	; 0xb00
 8001880:	681b      	ldr	r3, [r3, #0]
 8001882:	f043 5380 	orr.w	r3, r3, #268435456	; 0x10000000
 8001886:	600b      	str	r3, [r1, #0]
      }
    }
    /* EP enable */
    USBx_OUTEP(ep->num)->DOEPCTL |= (USB_OTG_DOEPCTL_CNAK | USB_OTG_DOEPCTL_EPENA);
 8001888:	68bb      	ldr	r3, [r7, #8]
 800188a:	781b      	ldrb	r3, [r3, #0]
 800188c:	015a      	lsls	r2, r3, #5
 800188e:	68fb      	ldr	r3, [r7, #12]
 8001890:	4413      	add	r3, r2
 8001892:	f503 6330 	add.w	r3, r3, #2816	; 0xb00
 8001896:	4619      	mov	r1, r3
 8001898:	68bb      	ldr	r3, [r7, #8]
 800189a:	781b      	ldrb	r3, [r3, #0]
 800189c:	015a      	lsls	r2, r3, #5
 800189e:	68fb      	ldr	r3, [r7, #12]
 80018a0:	4413      	add	r3, r2
 80018a2:	f503 6330 	add.w	r3, r3, #2816	; 0xb00
 80018a6:	681b      	ldr	r3, [r3, #0]
 80018a8:	f043 4304 	orr.w	r3, r3, #2214592512	; 0x84000000
 80018ac:	600b      	str	r3, [r1, #0]
  }
  return HAL_OK;
 80018ae:	2300      	movs	r3, #0
}
 80018b0:	4618      	mov	r0, r3
 80018b2:	3718      	adds	r7, #24
 80018b4:	46bd      	mov	sp, r7
 80018b6:	bd80      	pop	{r7, pc}
 80018b8:	fff80000 	.word	0xfff80000
 80018bc:	e007ffff 	.word	0xe007ffff
 80018c0:	1ff80000 	.word	0x1ff80000

080018c4 <USB_EP0StartXfer>:
  *           0 : DMA feature not used
  *           1 : DMA feature used
  * @retval HAL status
  */
HAL_StatusTypeDef USB_EP0StartXfer(USB_OTG_GlobalTypeDef *USBx , USB_OTG_EPTypeDef *ep, uint8_t dma)
{
 80018c4:	b480      	push	{r7}
 80018c6:	b085      	sub	sp, #20
 80018c8:	af00      	add	r7, sp, #0
 80018ca:	60f8      	str	r0, [r7, #12]
 80018cc:	60b9      	str	r1, [r7, #8]
 80018ce:	4613      	mov	r3, r2
 80018d0:	71fb      	strb	r3, [r7, #7]
  /* IN endpoint */
  if (ep->is_in == 1)
 80018d2:	68bb      	ldr	r3, [r7, #8]
 80018d4:	785b      	ldrb	r3, [r3, #1]
 80018d6:	2b01      	cmp	r3, #1
 80018d8:	f040 80cd 	bne.w	8001a76 <USB_EP0StartXfer+0x1b2>
  {
    /* Zero Length Packet? */
    if (ep->xfer_len == 0)
 80018dc:	68bb      	ldr	r3, [r7, #8]
 80018de:	695b      	ldr	r3, [r3, #20]
 80018e0:	2b00      	cmp	r3, #0
 80018e2:	d139      	bne.n	8001958 <USB_EP0StartXfer+0x94>
    {
      USBx_INEP(ep->num)->DIEPTSIZ &= ~(USB_OTG_DIEPTSIZ_PKTCNT);
 80018e4:	68bb      	ldr	r3, [r7, #8]
 80018e6:	781b      	ldrb	r3, [r3, #0]
 80018e8:	015a      	lsls	r2, r3, #5
 80018ea:	68fb      	ldr	r3, [r7, #12]
 80018ec:	4413      	add	r3, r2
 80018ee:	f503 6310 	add.w	r3, r3, #2304	; 0x900
 80018f2:	4619      	mov	r1, r3
 80018f4:	68bb      	ldr	r3, [r7, #8]
 80018f6:	781b      	ldrb	r3, [r3, #0]
 80018f8:	015a      	lsls	r2, r3, #5
 80018fa:	68fb      	ldr	r3, [r7, #12]
 80018fc:	4413      	add	r3, r2
 80018fe:	f503 6310 	add.w	r3, r3, #2304	; 0x900
 8001902:	691a      	ldr	r2, [r3, #16]
 8001904:	4b9b      	ldr	r3, [pc, #620]	; (8001b74 <USB_EP0StartXfer+0x2b0>)
 8001906:	4013      	ands	r3, r2
 8001908:	610b      	str	r3, [r1, #16]
      USBx_INEP(ep->num)->DIEPTSIZ |= (USB_OTG_DIEPTSIZ_PKTCNT & (1 << 19)) ;
 800190a:	68bb      	ldr	r3, [r7, #8]
 800190c:	781b      	ldrb	r3, [r3, #0]
 800190e:	015a      	lsls	r2, r3, #5
 8001910:	68fb      	ldr	r3, [r7, #12]
 8001912:	4413      	add	r3, r2
 8001914:	f503 6310 	add.w	r3, r3, #2304	; 0x900
 8001918:	4619      	mov	r1, r3
 800191a:	68bb      	ldr	r3, [r7, #8]
 800191c:	781b      	ldrb	r3, [r3, #0]
 800191e:	015a      	lsls	r2, r3, #5
 8001920:	68fb      	ldr	r3, [r7, #12]
 8001922:	4413      	add	r3, r2
 8001924:	f503 6310 	add.w	r3, r3, #2304	; 0x900
 8001928:	691b      	ldr	r3, [r3, #16]
 800192a:	f443 2300 	orr.w	r3, r3, #524288	; 0x80000
 800192e:	610b      	str	r3, [r1, #16]
      USBx_INEP(ep->num)->DIEPTSIZ &= ~(USB_OTG_DIEPTSIZ_XFRSIZ);
 8001930:	68bb      	ldr	r3, [r7, #8]
 8001932:	781b      	ldrb	r3, [r3, #0]
 8001934:	015a      	lsls	r2, r3, #5
 8001936:	68fb      	ldr	r3, [r7, #12]
 8001938:	4413      	add	r3, r2
 800193a:	f503 6310 	add.w	r3, r3, #2304	; 0x900
 800193e:	4619      	mov	r1, r3
 8001940:	68bb      	ldr	r3, [r7, #8]
 8001942:	781b      	ldrb	r3, [r3, #0]
 8001944:	015a      	lsls	r2, r3, #5
 8001946:	68fb      	ldr	r3, [r7, #12]
 8001948:	4413      	add	r3, r2
 800194a:	f503 6310 	add.w	r3, r3, #2304	; 0x900
 800194e:	691a      	ldr	r2, [r3, #16]
 8001950:	4b89      	ldr	r3, [pc, #548]	; (8001b78 <USB_EP0StartXfer+0x2b4>)
 8001952:	4013      	ands	r3, r2
 8001954:	610b      	str	r3, [r1, #16]
 8001956:	e058      	b.n	8001a0a <USB_EP0StartXfer+0x146>
      /* Program the transfer size and packet count
      * as follows: xfersize = N * maxpacket +
      * short_packet pktcnt = N + (short_packet
      * exist ? 1 : 0)
      */
      USBx_INEP(ep->num)->DIEPTSIZ &= ~(USB_OTG_DIEPTSIZ_XFRSIZ);
 8001958:	68bb      	ldr	r3, [r7, #8]
 800195a:	781b      	ldrb	r3, [r3, #0]
 800195c:	015a      	lsls	r2, r3, #5
 800195e:	68fb      	ldr	r3, [r7, #12]
 8001960:	4413      	add	r3, r2
 8001962:	f503 6310 	add.w	r3, r3, #2304	; 0x900
 8001966:	4619      	mov	r1, r3
 8001968:	68bb      	ldr	r3, [r7, #8]
 800196a:	781b      	ldrb	r3, [r3, #0]
 800196c:	015a      	lsls	r2, r3, #5
 800196e:	68fb      	ldr	r3, [r7, #12]
 8001970:	4413      	add	r3, r2
 8001972:	f503 6310 	add.w	r3, r3, #2304	; 0x900
 8001976:	691a      	ldr	r2, [r3, #16]
 8001978:	4b7f      	ldr	r3, [pc, #508]	; (8001b78 <USB_EP0StartXfer+0x2b4>)
 800197a:	4013      	ands	r3, r2
 800197c:	610b      	str	r3, [r1, #16]
      USBx_INEP(ep->num)->DIEPTSIZ &= ~(USB_OTG_DIEPTSIZ_PKTCNT);
 800197e:	68bb      	ldr	r3, [r7, #8]
 8001980:	781b      	ldrb	r3, [r3, #0]
 8001982:	015a      	lsls	r2, r3, #5
 8001984:	68fb      	ldr	r3, [r7, #12]
 8001986:	4413      	add	r3, r2
 8001988:	f503 6310 	add.w	r3, r3, #2304	; 0x900
 800198c:	4619      	mov	r1, r3
 800198e:	68bb      	ldr	r3, [r7, #8]
 8001990:	781b      	ldrb	r3, [r3, #0]
 8001992:	015a      	lsls	r2, r3, #5
 8001994:	68fb      	ldr	r3, [r7, #12]
 8001996:	4413      	add	r3, r2
 8001998:	f503 6310 	add.w	r3, r3, #2304	; 0x900
 800199c:	691a      	ldr	r2, [r3, #16]
 800199e:	4b75      	ldr	r3, [pc, #468]	; (8001b74 <USB_EP0StartXfer+0x2b0>)
 80019a0:	4013      	ands	r3, r2
 80019a2:	610b      	str	r3, [r1, #16]

      if(ep->xfer_len > ep->maxpacket)
 80019a4:	68bb      	ldr	r3, [r7, #8]
 80019a6:	695a      	ldr	r2, [r3, #20]
 80019a8:	68bb      	ldr	r3, [r7, #8]
 80019aa:	689b      	ldr	r3, [r3, #8]
 80019ac:	429a      	cmp	r2, r3
 80019ae:	d903      	bls.n	80019b8 <USB_EP0StartXfer+0xf4>
      {
        ep->xfer_len = ep->maxpacket;
 80019b0:	68bb      	ldr	r3, [r7, #8]
 80019b2:	689a      	ldr	r2, [r3, #8]
 80019b4:	68bb      	ldr	r3, [r7, #8]
 80019b6:	615a      	str	r2, [r3, #20]
      }
      USBx_INEP(ep->num)->DIEPTSIZ |= (USB_OTG_DIEPTSIZ_PKTCNT & (1 << 19)) ;
 80019b8:	68bb      	ldr	r3, [r7, #8]
 80019ba:	781b      	ldrb	r3, [r3, #0]
 80019bc:	015a      	lsls	r2, r3, #5
 80019be:	68fb      	ldr	r3, [r7, #12]
 80019c0:	4413      	add	r3, r2
 80019c2:	f503 6310 	add.w	r3, r3, #2304	; 0x900
 80019c6:	4619      	mov	r1, r3
 80019c8:	68bb      	ldr	r3, [r7, #8]
 80019ca:	781b      	ldrb	r3, [r3, #0]
 80019cc:	015a      	lsls	r2, r3, #5
 80019ce:	68fb      	ldr	r3, [r7, #12]
 80019d0:	4413      	add	r3, r2
 80019d2:	f503 6310 	add.w	r3, r3, #2304	; 0x900
 80019d6:	691b      	ldr	r3, [r3, #16]
 80019d8:	f443 2300 	orr.w	r3, r3, #524288	; 0x80000
 80019dc:	610b      	str	r3, [r1, #16]
      USBx_INEP(ep->num)->DIEPTSIZ |= (USB_OTG_DIEPTSIZ_XFRSIZ & ep->xfer_len);
 80019de:	68bb      	ldr	r3, [r7, #8]
 80019e0:	781b      	ldrb	r3, [r3, #0]
 80019e2:	015a      	lsls	r2, r3, #5
 80019e4:	68fb      	ldr	r3, [r7, #12]
 80019e6:	4413      	add	r3, r2
 80019e8:	f503 6310 	add.w	r3, r3, #2304	; 0x900
 80019ec:	4619      	mov	r1, r3
 80019ee:	68bb      	ldr	r3, [r7, #8]
 80019f0:	781b      	ldrb	r3, [r3, #0]
 80019f2:	015a      	lsls	r2, r3, #5
 80019f4:	68fb      	ldr	r3, [r7, #12]
 80019f6:	4413      	add	r3, r2
 80019f8:	f503 6310 	add.w	r3, r3, #2304	; 0x900
 80019fc:	691a      	ldr	r2, [r3, #16]
 80019fe:	68bb      	ldr	r3, [r7, #8]
 8001a00:	695b      	ldr	r3, [r3, #20]
 8001a02:	f3c3 0312 	ubfx	r3, r3, #0, #19
 8001a06:	4313      	orrs	r3, r2
 8001a08:	610b      	str	r3, [r1, #16]

    }

    if (dma == 1)
 8001a0a:	79fb      	ldrb	r3, [r7, #7]
 8001a0c:	2b01      	cmp	r3, #1
 8001a0e:	d10b      	bne.n	8001a28 <USB_EP0StartXfer+0x164>
    {
      USBx_INEP(ep->num)->DIEPDMA = (uint32_t)(ep->dma_addr);
 8001a10:	68bb      	ldr	r3, [r7, #8]
 8001a12:	781b      	ldrb	r3, [r3, #0]
 8001a14:	015a      	lsls	r2, r3, #5
 8001a16:	68fb      	ldr	r3, [r7, #12]
 8001a18:	4413      	add	r3, r2
 8001a1a:	f503 6310 	add.w	r3, r3, #2304	; 0x900
 8001a1e:	461a      	mov	r2, r3
 8001a20:	68bb      	ldr	r3, [r7, #8]
 8001a22:	691b      	ldr	r3, [r3, #16]
 8001a24:	6153      	str	r3, [r2, #20]
 8001a26:	e012      	b.n	8001a4e <USB_EP0StartXfer+0x18a>
    }
    else
    {
      /* Enable the Tx FIFO Empty Interrupt for this EP */
      if (ep->xfer_len > 0U)
 8001a28:	68bb      	ldr	r3, [r7, #8]
 8001a2a:	695b      	ldr	r3, [r3, #20]
 8001a2c:	2b00      	cmp	r3, #0
 8001a2e:	d00e      	beq.n	8001a4e <USB_EP0StartXfer+0x18a>
      {
        USBx_DEVICE->DIEPEMPMSK |= 1U << (ep->num);
 8001a30:	68fb      	ldr	r3, [r7, #12]
 8001a32:	f503 6300 	add.w	r3, r3, #2048	; 0x800
 8001a36:	4619      	mov	r1, r3
 8001a38:	68fb      	ldr	r3, [r7, #12]
 8001a3a:	f503 6300 	add.w	r3, r3, #2048	; 0x800
 8001a3e:	6b5a      	ldr	r2, [r3, #52]	; 0x34
 8001a40:	68bb      	ldr	r3, [r7, #8]
 8001a42:	781b      	ldrb	r3, [r3, #0]
 8001a44:	4618      	mov	r0, r3
 8001a46:	2301      	movs	r3, #1
 8001a48:	4083      	lsls	r3, r0
 8001a4a:	4313      	orrs	r3, r2
 8001a4c:	634b      	str	r3, [r1, #52]	; 0x34
      }
    }

    /* EP enable, IN data in FIFO */
    USBx_INEP(ep->num)->DIEPCTL |= (USB_OTG_DIEPCTL_CNAK | USB_OTG_DIEPCTL_EPENA);
 8001a4e:	68bb      	ldr	r3, [r7, #8]
 8001a50:	781b      	ldrb	r3, [r3, #0]
 8001a52:	015a      	lsls	r2, r3, #5
 8001a54:	68fb      	ldr	r3, [r7, #12]
 8001a56:	4413      	add	r3, r2
 8001a58:	f503 6310 	add.w	r3, r3, #2304	; 0x900
 8001a5c:	4619      	mov	r1, r3
 8001a5e:	68bb      	ldr	r3, [r7, #8]
 8001a60:	781b      	ldrb	r3, [r3, #0]
 8001a62:	015a      	lsls	r2, r3, #5
 8001a64:	68fb      	ldr	r3, [r7, #12]
 8001a66:	4413      	add	r3, r2
 8001a68:	f503 6310 	add.w	r3, r3, #2304	; 0x900
 8001a6c:	681b      	ldr	r3, [r3, #0]
 8001a6e:	f043 4304 	orr.w	r3, r3, #2214592512	; 0x84000000
 8001a72:	600b      	str	r3, [r1, #0]
 8001a74:	e077      	b.n	8001b66 <USB_EP0StartXfer+0x2a2>
  {
    /* Program the transfer size and packet count as follows:
    * pktcnt = N
    * xfersize = N * maxpacket
    */
    USBx_OUTEP(ep->num)->DOEPTSIZ &= ~(USB_OTG_DOEPTSIZ_XFRSIZ);
 8001a76:	68bb      	ldr	r3, [r7, #8]
 8001a78:	781b      	ldrb	r3, [r3, #0]
 8001a7a:	015a      	lsls	r2, r3, #5
 8001a7c:	68fb      	ldr	r3, [r7, #12]
 8001a7e:	4413      	add	r3, r2
 8001a80:	f503 6330 	add.w	r3, r3, #2816	; 0xb00
 8001a84:	4619      	mov	r1, r3
 8001a86:	68bb      	ldr	r3, [r7, #8]
 8001a88:	781b      	ldrb	r3, [r3, #0]
 8001a8a:	015a      	lsls	r2, r3, #5
 8001a8c:	68fb      	ldr	r3, [r7, #12]
 8001a8e:	4413      	add	r3, r2
 8001a90:	f503 6330 	add.w	r3, r3, #2816	; 0xb00
 8001a94:	691a      	ldr	r2, [r3, #16]
 8001a96:	4b38      	ldr	r3, [pc, #224]	; (8001b78 <USB_EP0StartXfer+0x2b4>)
 8001a98:	4013      	ands	r3, r2
 8001a9a:	610b      	str	r3, [r1, #16]
    USBx_OUTEP(ep->num)->DOEPTSIZ &= ~(USB_OTG_DOEPTSIZ_PKTCNT);
 8001a9c:	68bb      	ldr	r3, [r7, #8]
 8001a9e:	781b      	ldrb	r3, [r3, #0]
 8001aa0:	015a      	lsls	r2, r3, #5
 8001aa2:	68fb      	ldr	r3, [r7, #12]
 8001aa4:	4413      	add	r3, r2
 8001aa6:	f503 6330 	add.w	r3, r3, #2816	; 0xb00
 8001aaa:	4619      	mov	r1, r3
 8001aac:	68bb      	ldr	r3, [r7, #8]
 8001aae:	781b      	ldrb	r3, [r3, #0]
 8001ab0:	015a      	lsls	r2, r3, #5
 8001ab2:	68fb      	ldr	r3, [r7, #12]
 8001ab4:	4413      	add	r3, r2
 8001ab6:	f503 6330 	add.w	r3, r3, #2816	; 0xb00
 8001aba:	691a      	ldr	r2, [r3, #16]
 8001abc:	4b2d      	ldr	r3, [pc, #180]	; (8001b74 <USB_EP0StartXfer+0x2b0>)
 8001abe:	4013      	ands	r3, r2
 8001ac0:	610b      	str	r3, [r1, #16]

    if (ep->xfer_len > 0)
 8001ac2:	68bb      	ldr	r3, [r7, #8]
 8001ac4:	695b      	ldr	r3, [r3, #20]
 8001ac6:	2b00      	cmp	r3, #0
 8001ac8:	d003      	beq.n	8001ad2 <USB_EP0StartXfer+0x20e>
    {
      ep->xfer_len = ep->maxpacket;
 8001aca:	68bb      	ldr	r3, [r7, #8]
 8001acc:	689a      	ldr	r2, [r3, #8]
 8001ace:	68bb      	ldr	r3, [r7, #8]
 8001ad0:	615a      	str	r2, [r3, #20]
    }

    USBx_OUTEP(ep->num)->DOEPTSIZ |= (USB_OTG_DOEPTSIZ_PKTCNT & (1 << 19));
 8001ad2:	68bb      	ldr	r3, [r7, #8]
 8001ad4:	781b      	ldrb	r3, [r3, #0]
 8001ad6:	015a      	lsls	r2, r3, #5
 8001ad8:	68fb      	ldr	r3, [r7, #12]
 8001ada:	4413      	add	r3, r2
 8001adc:	f503 6330 	add.w	r3, r3, #2816	; 0xb00
 8001ae0:	4619      	mov	r1, r3
 8001ae2:	68bb      	ldr	r3, [r7, #8]
 8001ae4:	781b      	ldrb	r3, [r3, #0]
 8001ae6:	015a      	lsls	r2, r3, #5
 8001ae8:	68fb      	ldr	r3, [r7, #12]
 8001aea:	4413      	add	r3, r2
 8001aec:	f503 6330 	add.w	r3, r3, #2816	; 0xb00
 8001af0:	691b      	ldr	r3, [r3, #16]
 8001af2:	f443 2300 	orr.w	r3, r3, #524288	; 0x80000
 8001af6:	610b      	str	r3, [r1, #16]
    USBx_OUTEP(ep->num)->DOEPTSIZ |= (USB_OTG_DOEPTSIZ_XFRSIZ & (ep->maxpacket));
 8001af8:	68bb      	ldr	r3, [r7, #8]
 8001afa:	781b      	ldrb	r3, [r3, #0]
 8001afc:	015a      	lsls	r2, r3, #5
 8001afe:	68fb      	ldr	r3, [r7, #12]
 8001b00:	4413      	add	r3, r2
 8001b02:	f503 6330 	add.w	r3, r3, #2816	; 0xb00
 8001b06:	4619      	mov	r1, r3
 8001b08:	68bb      	ldr	r3, [r7, #8]
 8001b0a:	781b      	ldrb	r3, [r3, #0]
 8001b0c:	015a      	lsls	r2, r3, #5
 8001b0e:	68fb      	ldr	r3, [r7, #12]
 8001b10:	4413      	add	r3, r2
 8001b12:	f503 6330 	add.w	r3, r3, #2816	; 0xb00
 8001b16:	691a      	ldr	r2, [r3, #16]
 8001b18:	68bb      	ldr	r3, [r7, #8]
 8001b1a:	689b      	ldr	r3, [r3, #8]
 8001b1c:	f3c3 0312 	ubfx	r3, r3, #0, #19
 8001b20:	4313      	orrs	r3, r2
 8001b22:	610b      	str	r3, [r1, #16]


    if (dma == 1)
 8001b24:	79fb      	ldrb	r3, [r7, #7]
 8001b26:	2b01      	cmp	r3, #1
 8001b28:	d10a      	bne.n	8001b40 <USB_EP0StartXfer+0x27c>
    {
      USBx_OUTEP(ep->num)->DOEPDMA = (uint32_t)(ep->xfer_buff);
 8001b2a:	68bb      	ldr	r3, [r7, #8]
 8001b2c:	781b      	ldrb	r3, [r3, #0]
 8001b2e:	015a      	lsls	r2, r3, #5
 8001b30:	68fb      	ldr	r3, [r7, #12]
 8001b32:	4413      	add	r3, r2
 8001b34:	f503 6330 	add.w	r3, r3, #2816	; 0xb00
 8001b38:	461a      	mov	r2, r3
 8001b3a:	68bb      	ldr	r3, [r7, #8]
 8001b3c:	68db      	ldr	r3, [r3, #12]
 8001b3e:	6153      	str	r3, [r2, #20]
    }

    /* EP enable */
    USBx_OUTEP(ep->num)->DOEPCTL |= (USB_OTG_DOEPCTL_CNAK | USB_OTG_DOEPCTL_EPENA);
 8001b40:	68bb      	ldr	r3, [r7, #8]
 8001b42:	781b      	ldrb	r3, [r3, #0]
 8001b44:	015a      	lsls	r2, r3, #5
 8001b46:	68fb      	ldr	r3, [r7, #12]
 8001b48:	4413      	add	r3, r2
 8001b4a:	f503 6330 	add.w	r3, r3, #2816	; 0xb00
 8001b4e:	4619      	mov	r1, r3
 8001b50:	68bb      	ldr	r3, [r7, #8]
 8001b52:	781b      	ldrb	r3, [r3, #0]
 8001b54:	015a      	lsls	r2, r3, #5
 8001b56:	68fb      	ldr	r3, [r7, #12]
 8001b58:	4413      	add	r3, r2
 8001b5a:	f503 6330 	add.w	r3, r3, #2816	; 0xb00
 8001b5e:	681b      	ldr	r3, [r3, #0]
 8001b60:	f043 4304 	orr.w	r3, r3, #2214592512	; 0x84000000
 8001b64:	600b      	str	r3, [r1, #0]
  }
  return HAL_OK;
 8001b66:	2300      	movs	r3, #0
}
 8001b68:	4618      	mov	r0, r3
 8001b6a:	3714      	adds	r7, #20
 8001b6c:	46bd      	mov	sp, r7
 8001b6e:	f85d 7b04 	ldr.w	r7, [sp], #4
 8001b72:	4770      	bx	lr
 8001b74:	e007ffff 	.word	0xe007ffff
 8001b78:	fff80000 	.word	0xfff80000

08001b7c <USB_WritePacket>:
  *           0 : DMA feature not used
  *           1 : DMA feature used
  * @retval HAL status
  */
HAL_StatusTypeDef USB_WritePacket(USB_OTG_GlobalTypeDef *USBx, uint8_t *src, uint8_t ch_ep_num, uint16_t len, uint8_t dma)
{
 8001b7c:	b480      	push	{r7}
 8001b7e:	b087      	sub	sp, #28
 8001b80:	af00      	add	r7, sp, #0
 8001b82:	60f8      	str	r0, [r7, #12]
 8001b84:	60b9      	str	r1, [r7, #8]
 8001b86:	4611      	mov	r1, r2
 8001b88:	461a      	mov	r2, r3
 8001b8a:	460b      	mov	r3, r1
 8001b8c:	71fb      	strb	r3, [r7, #7]
 8001b8e:	4613      	mov	r3, r2
 8001b90:	80bb      	strh	r3, [r7, #4]
  uint32_t count32b= 0 , i= 0;
 8001b92:	2300      	movs	r3, #0
 8001b94:	613b      	str	r3, [r7, #16]
 8001b96:	2300      	movs	r3, #0
 8001b98:	617b      	str	r3, [r7, #20]

  if (dma == 0)
 8001b9a:	f897 3020 	ldrb.w	r3, [r7, #32]
 8001b9e:	2b00      	cmp	r3, #0
 8001ba0:	d11d      	bne.n	8001bde <USB_WritePacket+0x62>
  {
    count32b =  (len + 3) / 4;
 8001ba2:	88bb      	ldrh	r3, [r7, #4]
 8001ba4:	3303      	adds	r3, #3
 8001ba6:	2b00      	cmp	r3, #0
 8001ba8:	da00      	bge.n	8001bac <USB_WritePacket+0x30>
 8001baa:	3303      	adds	r3, #3
 8001bac:	109b      	asrs	r3, r3, #2
 8001bae:	613b      	str	r3, [r7, #16]
    for (i = 0; i < count32b; i++, src += 4)
 8001bb0:	2300      	movs	r3, #0
 8001bb2:	617b      	str	r3, [r7, #20]
 8001bb4:	e00f      	b.n	8001bd6 <USB_WritePacket+0x5a>
    {
      USBx_DFIFO(ch_ep_num) = *((__packed uint32_t *)src);
 8001bb6:	79fb      	ldrb	r3, [r7, #7]
 8001bb8:	031a      	lsls	r2, r3, #12
 8001bba:	68fb      	ldr	r3, [r7, #12]
 8001bbc:	4413      	add	r3, r2
 8001bbe:	f503 5380 	add.w	r3, r3, #4096	; 0x1000
 8001bc2:	461a      	mov	r2, r3
 8001bc4:	68bb      	ldr	r3, [r7, #8]
 8001bc6:	681b      	ldr	r3, [r3, #0]
 8001bc8:	6013      	str	r3, [r2, #0]
    for (i = 0; i < count32b; i++, src += 4)
 8001bca:	697b      	ldr	r3, [r7, #20]
 8001bcc:	3301      	adds	r3, #1
 8001bce:	617b      	str	r3, [r7, #20]
 8001bd0:	68bb      	ldr	r3, [r7, #8]
 8001bd2:	3304      	adds	r3, #4
 8001bd4:	60bb      	str	r3, [r7, #8]
 8001bd6:	697a      	ldr	r2, [r7, #20]
 8001bd8:	693b      	ldr	r3, [r7, #16]
 8001bda:	429a      	cmp	r2, r3
 8001bdc:	d3eb      	bcc.n	8001bb6 <USB_WritePacket+0x3a>
    }
  }
  return HAL_OK;
 8001bde:	2300      	movs	r3, #0
}
 8001be0:	4618      	mov	r0, r3
 8001be2:	371c      	adds	r7, #28
 8001be4:	46bd      	mov	sp, r7
 8001be6:	f85d 7b04 	ldr.w	r7, [sp], #4
 8001bea:	4770      	bx	lr

08001bec <USB_DevConnect>:
  * @brief  USB_DevConnect : Connect the USB device by enabling the pull-up/pull-down
  * @param  USBx  Selected device
  * @retval HAL status
  */
HAL_StatusTypeDef  USB_DevConnect (USB_OTG_GlobalTypeDef *USBx)
{
 8001bec:	b580      	push	{r7, lr}
 8001bee:	b082      	sub	sp, #8
 8001bf0:	af00      	add	r7, sp, #0
 8001bf2:	6078      	str	r0, [r7, #4]
  USBx_DEVICE->DCTL &= ~USB_OTG_DCTL_SDIS ;
 8001bf4:	687b      	ldr	r3, [r7, #4]
 8001bf6:	f503 6300 	add.w	r3, r3, #2048	; 0x800
 8001bfa:	461a      	mov	r2, r3
 8001bfc:	687b      	ldr	r3, [r7, #4]
 8001bfe:	f503 6300 	add.w	r3, r3, #2048	; 0x800
 8001c02:	685b      	ldr	r3, [r3, #4]
 8001c04:	f023 0302 	bic.w	r3, r3, #2
 8001c08:	6053      	str	r3, [r2, #4]
  HAL_Delay(3);
 8001c0a:	2003      	movs	r0, #3
 8001c0c:	f7fe fb34 	bl	8000278 <HAL_Delay>

  return HAL_OK;
 8001c10:	2300      	movs	r3, #0
}
 8001c12:	4618      	mov	r0, r3
 8001c14:	3708      	adds	r7, #8
 8001c16:	46bd      	mov	sp, r7
 8001c18:	bd80      	pop	{r7, pc}

08001c1a <USB_DevDisconnect>:
  * @brief  USB_DevDisconnect : Disconnect the USB device by disabling the pull-up/pull-down
  * @param  USBx  Selected device
  * @retval HAL status
  */
HAL_StatusTypeDef  USB_DevDisconnect (USB_OTG_GlobalTypeDef *USBx)
{
 8001c1a:	b580      	push	{r7, lr}
 8001c1c:	b082      	sub	sp, #8
 8001c1e:	af00      	add	r7, sp, #0
 8001c20:	6078      	str	r0, [r7, #4]
  USBx_DEVICE->DCTL |= USB_OTG_DCTL_SDIS ;
 8001c22:	687b      	ldr	r3, [r7, #4]
 8001c24:	f503 6300 	add.w	r3, r3, #2048	; 0x800
 8001c28:	461a      	mov	r2, r3
 8001c2a:	687b      	ldr	r3, [r7, #4]
 8001c2c:	f503 6300 	add.w	r3, r3, #2048	; 0x800
 8001c30:	685b      	ldr	r3, [r3, #4]
 8001c32:	f043 0302 	orr.w	r3, r3, #2
 8001c36:	6053      	str	r3, [r2, #4]
  HAL_Delay(3);
 8001c38:	2003      	movs	r0, #3
 8001c3a:	f7fe fb1d 	bl	8000278 <HAL_Delay>

  return HAL_OK;
 8001c3e:	2300      	movs	r3, #0
}
 8001c40:	4618      	mov	r0, r3
 8001c42:	3708      	adds	r7, #8
 8001c44:	46bd      	mov	sp, r7
 8001c46:	bd80      	pop	{r7, pc}

08001c48 <USB_CoreReset>:
  * @brief  Reset the USB Core (needed after USB clock settings change)
  * @param  USBx  Selected device
  * @retval HAL status
  */
static HAL_StatusTypeDef USB_CoreReset(USB_OTG_GlobalTypeDef *USBx)
{
 8001c48:	b480      	push	{r7}
 8001c4a:	b085      	sub	sp, #20
 8001c4c:	af00      	add	r7, sp, #0
 8001c4e:	6078      	str	r0, [r7, #4]
  uint32_t count = 0;
 8001c50:	2300      	movs	r3, #0
 8001c52:	60fb      	str	r3, [r7, #12]

  /* Wait for AHB master IDLE state. */
  do
  {
    if (++count > 200000)
 8001c54:	68fb      	ldr	r3, [r7, #12]
 8001c56:	3301      	adds	r3, #1
 8001c58:	60fb      	str	r3, [r7, #12]
 8001c5a:	68fb      	ldr	r3, [r7, #12]
 8001c5c:	4a13      	ldr	r2, [pc, #76]	; (8001cac <USB_CoreReset+0x64>)
 8001c5e:	4293      	cmp	r3, r2
 8001c60:	d901      	bls.n	8001c66 <USB_CoreReset+0x1e>
    {
      return HAL_TIMEOUT;
 8001c62:	2303      	movs	r3, #3
 8001c64:	e01b      	b.n	8001c9e <USB_CoreReset+0x56>
    }
  }
  while ((USBx->GRSTCTL & USB_OTG_GRSTCTL_AHBIDL) == 0);
 8001c66:	687b      	ldr	r3, [r7, #4]
 8001c68:	691b      	ldr	r3, [r3, #16]
 8001c6a:	2b00      	cmp	r3, #0
 8001c6c:	daf2      	bge.n	8001c54 <USB_CoreReset+0xc>

  /* Core Soft Reset */
  count = 0;
 8001c6e:	2300      	movs	r3, #0
 8001c70:	60fb      	str	r3, [r7, #12]
  USBx->GRSTCTL |= USB_OTG_GRSTCTL_CSRST;
 8001c72:	687b      	ldr	r3, [r7, #4]
 8001c74:	691b      	ldr	r3, [r3, #16]
 8001c76:	f043 0201 	orr.w	r2, r3, #1
 8001c7a:	687b      	ldr	r3, [r7, #4]
 8001c7c:	611a      	str	r2, [r3, #16]

  do
  {
    if (++count > 200000)
 8001c7e:	68fb      	ldr	r3, [r7, #12]
 8001c80:	3301      	adds	r3, #1
 8001c82:	60fb      	str	r3, [r7, #12]
 8001c84:	68fb      	ldr	r3, [r7, #12]
 8001c86:	4a09      	ldr	r2, [pc, #36]	; (8001cac <USB_CoreReset+0x64>)
 8001c88:	4293      	cmp	r3, r2
 8001c8a:	d901      	bls.n	8001c90 <USB_CoreReset+0x48>
    {
      return HAL_TIMEOUT;
 8001c8c:	2303      	movs	r3, #3
 8001c8e:	e006      	b.n	8001c9e <USB_CoreReset+0x56>
    }
  }
  while ((USBx->GRSTCTL & USB_OTG_GRSTCTL_CSRST) == USB_OTG_GRSTCTL_CSRST);
 8001c90:	687b      	ldr	r3, [r7, #4]
 8001c92:	691b      	ldr	r3, [r3, #16]
 8001c94:	f003 0301 	and.w	r3, r3, #1
 8001c98:	2b01      	cmp	r3, #1
 8001c9a:	d0f0      	beq.n	8001c7e <USB_CoreReset+0x36>

  return HAL_OK;
 8001c9c:	2300      	movs	r3, #0
}
 8001c9e:	4618      	mov	r0, r3
 8001ca0:	3714      	adds	r7, #20
 8001ca2:	46bd      	mov	sp, r7
 8001ca4:	f85d 7b04 	ldr.w	r7, [sp], #4
 8001ca8:	4770      	bx	lr
 8001caa:	bf00      	nop
 8001cac:	00030d40 	.word	0x00030d40

08001cb0 <USBD_CDC_Init>:
  * @param  cfgidx: Configuration index
  * @retval status
  */
static uint8_t  USBD_CDC_Init (USBD_HandleTypeDef *pdev, 
                               uint8_t cfgidx)
{
 8001cb0:	b580      	push	{r7, lr}
 8001cb2:	b084      	sub	sp, #16
 8001cb4:	af00      	add	r7, sp, #0
 8001cb6:	6078      	str	r0, [r7, #4]
 8001cb8:	460b      	mov	r3, r1
 8001cba:	70fb      	strb	r3, [r7, #3]
  uint8_t ret = 0;
 8001cbc:	2300      	movs	r3, #0
 8001cbe:	73fb      	strb	r3, [r7, #15]
  USBD_CDC_HandleTypeDef   *hcdc;
  
  if(pdev->dev_speed == USBD_SPEED_HIGH  ) 
 8001cc0:	687b      	ldr	r3, [r7, #4]
 8001cc2:	7c1b      	ldrb	r3, [r3, #16]
 8001cc4:	2b00      	cmp	r3, #0
 8001cc6:	d10e      	bne.n	8001ce6 <USBD_CDC_Init+0x36>
  {  
    /* Open EP IN */
    USBD_LL_OpenEP(pdev,
 8001cc8:	f44f 7300 	mov.w	r3, #512	; 0x200
 8001ccc:	2202      	movs	r2, #2
 8001cce:	2181      	movs	r1, #129	; 0x81
 8001cd0:	6878      	ldr	r0, [r7, #4]
 8001cd2:	f000 fd59 	bl	8002788 <USBD_LL_OpenEP>
                   CDC_IN_EP,
                   USBD_EP_TYPE_BULK,
                   CDC_DATA_HS_IN_PACKET_SIZE);
    
    /* Open EP OUT */
    USBD_LL_OpenEP(pdev,
 8001cd6:	f44f 7300 	mov.w	r3, #512	; 0x200
 8001cda:	2202      	movs	r2, #2
 8001cdc:	2101      	movs	r1, #1
 8001cde:	6878      	ldr	r0, [r7, #4]
 8001ce0:	f000 fd52 	bl	8002788 <USBD_LL_OpenEP>
 8001ce4:	e00b      	b.n	8001cfe <USBD_CDC_Init+0x4e>
    
  }
  else
  {
    /* Open EP IN */
    USBD_LL_OpenEP(pdev,
 8001ce6:	2340      	movs	r3, #64	; 0x40
 8001ce8:	2202      	movs	r2, #2
 8001cea:	2181      	movs	r1, #129	; 0x81
 8001cec:	6878      	ldr	r0, [r7, #4]
 8001cee:	f000 fd4b 	bl	8002788 <USBD_LL_OpenEP>
                   CDC_IN_EP,
                   USBD_EP_TYPE_BULK,
                   CDC_DATA_FS_IN_PACKET_SIZE);
    
    /* Open EP OUT */
    USBD_LL_OpenEP(pdev,
 8001cf2:	2340      	movs	r3, #64	; 0x40
 8001cf4:	2202      	movs	r2, #2
 8001cf6:	2101      	movs	r1, #1
 8001cf8:	6878      	ldr	r0, [r7, #4]
 8001cfa:	f000 fd45 	bl	8002788 <USBD_LL_OpenEP>
                   CDC_OUT_EP,
                   USBD_EP_TYPE_BULK,
                   CDC_DATA_FS_OUT_PACKET_SIZE);
  }
  /* Open Command IN EP */
  USBD_LL_OpenEP(pdev,
 8001cfe:	2308      	movs	r3, #8
 8001d00:	2203      	movs	r2, #3
 8001d02:	2182      	movs	r1, #130	; 0x82
 8001d04:	6878      	ldr	r0, [r7, #4]
 8001d06:	f000 fd3f 	bl	8002788 <USBD_LL_OpenEP>
                 CDC_CMD_EP,
                 USBD_EP_TYPE_INTR,
                 CDC_CMD_PACKET_SIZE);
  
    
  pdev->pClassData = USBD_malloc(sizeof (USBD_CDC_HandleTypeDef));
 8001d0a:	f44f 7007 	mov.w	r0, #540	; 0x21c
 8001d0e:	f000 ff1d 	bl	8002b4c <malloc>
 8001d12:	4603      	mov	r3, r0
 8001d14:	461a      	mov	r2, r3
 8001d16:	687b      	ldr	r3, [r7, #4]
 8001d18:	f8c3 2218 	str.w	r2, [r3, #536]	; 0x218
  
  if(pdev->pClassData == NULL)
 8001d1c:	687b      	ldr	r3, [r7, #4]
 8001d1e:	f8d3 3218 	ldr.w	r3, [r3, #536]	; 0x218
 8001d22:	2b00      	cmp	r3, #0
 8001d24:	d102      	bne.n	8001d2c <USBD_CDC_Init+0x7c>
  {
    ret = 1; 
 8001d26:	2301      	movs	r3, #1
 8001d28:	73fb      	strb	r3, [r7, #15]
 8001d2a:	e026      	b.n	8001d7a <USBD_CDC_Init+0xca>
  }
  else
  {
    hcdc = (USBD_CDC_HandleTypeDef*) pdev->pClassData;
 8001d2c:	687b      	ldr	r3, [r7, #4]
 8001d2e:	f8d3 3218 	ldr.w	r3, [r3, #536]	; 0x218
 8001d32:	60bb      	str	r3, [r7, #8]
    
    /* Init  physical Interface components */
    ((USBD_CDC_ItfTypeDef *)pdev->pUserData)->Init();
 8001d34:	687b      	ldr	r3, [r7, #4]
 8001d36:	f8d3 321c 	ldr.w	r3, [r3, #540]	; 0x21c
 8001d3a:	681b      	ldr	r3, [r3, #0]
 8001d3c:	4798      	blx	r3
    
    /* Init Xfer states */
    hcdc->TxState =0;
 8001d3e:	68bb      	ldr	r3, [r7, #8]
 8001d40:	2200      	movs	r2, #0
 8001d42:	f8c3 2214 	str.w	r2, [r3, #532]	; 0x214
    hcdc->RxState =0;
 8001d46:	68bb      	ldr	r3, [r7, #8]
 8001d48:	2200      	movs	r2, #0
 8001d4a:	f8c3 2218 	str.w	r2, [r3, #536]	; 0x218
       
    if(pdev->dev_speed == USBD_SPEED_HIGH  ) 
 8001d4e:	687b      	ldr	r3, [r7, #4]
 8001d50:	7c1b      	ldrb	r3, [r3, #16]
 8001d52:	2b00      	cmp	r3, #0
 8001d54:	d109      	bne.n	8001d6a <USBD_CDC_Init+0xba>
    {      
      /* Prepare Out endpoint to receive next packet */
      USBD_LL_PrepareReceive(pdev,
 8001d56:	68bb      	ldr	r3, [r7, #8]
 8001d58:	f8d3 2204 	ldr.w	r2, [r3, #516]	; 0x204
 8001d5c:	f44f 7300 	mov.w	r3, #512	; 0x200
 8001d60:	2101      	movs	r1, #1
 8001d62:	6878      	ldr	r0, [r7, #4]
 8001d64:	f000 fdbe 	bl	80028e4 <USBD_LL_PrepareReceive>
 8001d68:	e007      	b.n	8001d7a <USBD_CDC_Init+0xca>
                             CDC_DATA_HS_OUT_PACKET_SIZE);
    }
    else
    {
      /* Prepare Out endpoint to receive next packet */
      USBD_LL_PrepareReceive(pdev,
 8001d6a:	68bb      	ldr	r3, [r7, #8]
 8001d6c:	f8d3 2204 	ldr.w	r2, [r3, #516]	; 0x204
 8001d70:	2340      	movs	r3, #64	; 0x40
 8001d72:	2101      	movs	r1, #1
 8001d74:	6878      	ldr	r0, [r7, #4]
 8001d76:	f000 fdb5 	bl	80028e4 <USBD_LL_PrepareReceive>
                             CDC_DATA_FS_OUT_PACKET_SIZE);
    }
    
    
  }
  return ret;
 8001d7a:	7bfb      	ldrb	r3, [r7, #15]
}
 8001d7c:	4618      	mov	r0, r3
 8001d7e:	3710      	adds	r7, #16
 8001d80:	46bd      	mov	sp, r7
 8001d82:	bd80      	pop	{r7, pc}

08001d84 <USBD_CDC_DeInit>:
  * @param  cfgidx: Configuration index
  * @retval status
  */
static uint8_t  USBD_CDC_DeInit (USBD_HandleTypeDef *pdev, 
                                 uint8_t cfgidx)
{
 8001d84:	b580      	push	{r7, lr}
 8001d86:	b084      	sub	sp, #16
 8001d88:	af00      	add	r7, sp, #0
 8001d8a:	6078      	str	r0, [r7, #4]
 8001d8c:	460b      	mov	r3, r1
 8001d8e:	70fb      	strb	r3, [r7, #3]
  uint8_t ret = 0;
 8001d90:	2300      	movs	r3, #0
 8001d92:	73fb      	strb	r3, [r7, #15]
  
  /* Open EP IN */
  USBD_LL_CloseEP(pdev,
 8001d94:	2181      	movs	r1, #129	; 0x81
 8001d96:	6878      	ldr	r0, [r7, #4]
 8001d98:	f000 fd34 	bl	8002804 <USBD_LL_CloseEP>
              CDC_IN_EP);
  
  /* Open EP OUT */
  USBD_LL_CloseEP(pdev,
 8001d9c:	2101      	movs	r1, #1
 8001d9e:	6878      	ldr	r0, [r7, #4]
 8001da0:	f000 fd30 	bl	8002804 <USBD_LL_CloseEP>
              CDC_OUT_EP);
  
  /* Open Command IN EP */
  USBD_LL_CloseEP(pdev,
 8001da4:	2182      	movs	r1, #130	; 0x82
 8001da6:	6878      	ldr	r0, [r7, #4]
 8001da8:	f000 fd2c 	bl	8002804 <USBD_LL_CloseEP>
              CDC_CMD_EP);
  
  
  /* DeInit  physical Interface components */
  if(pdev->pClassData != NULL)
 8001dac:	687b      	ldr	r3, [r7, #4]
 8001dae:	f8d3 3218 	ldr.w	r3, [r3, #536]	; 0x218
 8001db2:	2b00      	cmp	r3, #0
 8001db4:	d00e      	beq.n	8001dd4 <USBD_CDC_DeInit+0x50>
  {
    ((USBD_CDC_ItfTypeDef *)pdev->pUserData)->DeInit();
 8001db6:	687b      	ldr	r3, [r7, #4]
 8001db8:	f8d3 321c 	ldr.w	r3, [r3, #540]	; 0x21c
 8001dbc:	685b      	ldr	r3, [r3, #4]
 8001dbe:	4798      	blx	r3
    USBD_free(pdev->pClassData);
 8001dc0:	687b      	ldr	r3, [r7, #4]
 8001dc2:	f8d3 3218 	ldr.w	r3, [r3, #536]	; 0x218
 8001dc6:	4618      	mov	r0, r3
 8001dc8:	f000 fec8 	bl	8002b5c <free>
    pdev->pClassData = NULL;
 8001dcc:	687b      	ldr	r3, [r7, #4]
 8001dce:	2200      	movs	r2, #0
 8001dd0:	f8c3 2218 	str.w	r2, [r3, #536]	; 0x218
  }
  
  return ret;
 8001dd4:	7bfb      	ldrb	r3, [r7, #15]
}
 8001dd6:	4618      	mov	r0, r3
 8001dd8:	3710      	adds	r7, #16
 8001dda:	46bd      	mov	sp, r7
 8001ddc:	bd80      	pop	{r7, pc}
	...

08001de0 <USBD_CDC_Setup>:
  * @param  req: usb requests
  * @retval status
  */
static uint8_t  USBD_CDC_Setup (USBD_HandleTypeDef *pdev, 
                                USBD_SetupReqTypedef *req)
{
 8001de0:	b580      	push	{r7, lr}
 8001de2:	b084      	sub	sp, #16
 8001de4:	af00      	add	r7, sp, #0
 8001de6:	6078      	str	r0, [r7, #4]
 8001de8:	6039      	str	r1, [r7, #0]
  USBD_CDC_HandleTypeDef   *hcdc = (USBD_CDC_HandleTypeDef*) pdev->pClassData;
 8001dea:	687b      	ldr	r3, [r7, #4]
 8001dec:	f8d3 3218 	ldr.w	r3, [r3, #536]	; 0x218
 8001df0:	60fb      	str	r3, [r7, #12]
  static uint8_t ifalt = 0;
    
  switch (req->bmRequest & USB_REQ_TYPE_MASK)
 8001df2:	683b      	ldr	r3, [r7, #0]
 8001df4:	781b      	ldrb	r3, [r3, #0]
 8001df6:	f003 0360 	and.w	r3, r3, #96	; 0x60
 8001dfa:	2b00      	cmp	r3, #0
 8001dfc:	d03a      	beq.n	8001e74 <USBD_CDC_Setup+0x94>
 8001dfe:	2b20      	cmp	r3, #32
 8001e00:	d000      	beq.n	8001e04 <USBD_CDC_Setup+0x24>
    case USB_REQ_SET_INTERFACE :
      break;
    }
 
  default: 
    break;
 8001e02:	e043      	b.n	8001e8c <USBD_CDC_Setup+0xac>
    if (req->wLength)
 8001e04:	683b      	ldr	r3, [r7, #0]
 8001e06:	88db      	ldrh	r3, [r3, #6]
 8001e08:	2b00      	cmp	r3, #0
 8001e0a:	d029      	beq.n	8001e60 <USBD_CDC_Setup+0x80>
      if (req->bmRequest & 0x80)
 8001e0c:	683b      	ldr	r3, [r7, #0]
 8001e0e:	781b      	ldrb	r3, [r3, #0]
 8001e10:	b25b      	sxtb	r3, r3
 8001e12:	2b00      	cmp	r3, #0
 8001e14:	da11      	bge.n	8001e3a <USBD_CDC_Setup+0x5a>
        ((USBD_CDC_ItfTypeDef *)pdev->pUserData)->Control(req->bRequest,
 8001e16:	687b      	ldr	r3, [r7, #4]
 8001e18:	f8d3 321c 	ldr.w	r3, [r3, #540]	; 0x21c
 8001e1c:	689b      	ldr	r3, [r3, #8]
 8001e1e:	683a      	ldr	r2, [r7, #0]
 8001e20:	7850      	ldrb	r0, [r2, #1]
                                                          (uint8_t *)hcdc->data,
 8001e22:	68f9      	ldr	r1, [r7, #12]
        ((USBD_CDC_ItfTypeDef *)pdev->pUserData)->Control(req->bRequest,
 8001e24:	683a      	ldr	r2, [r7, #0]
 8001e26:	88d2      	ldrh	r2, [r2, #6]
 8001e28:	4798      	blx	r3
                            (uint8_t *)hcdc->data,
 8001e2a:	68f9      	ldr	r1, [r7, #12]
          USBD_CtlSendData (pdev, 
 8001e2c:	683b      	ldr	r3, [r7, #0]
 8001e2e:	88db      	ldrh	r3, [r3, #6]
 8001e30:	461a      	mov	r2, r3
 8001e32:	6878      	ldr	r0, [r7, #4]
 8001e34:	f000 f9fd 	bl	8002232 <USBD_CtlSendData>
    break;
 8001e38:	e029      	b.n	8001e8e <USBD_CDC_Setup+0xae>
        hcdc->CmdOpCode = req->bRequest;
 8001e3a:	683b      	ldr	r3, [r7, #0]
 8001e3c:	785a      	ldrb	r2, [r3, #1]
 8001e3e:	68fb      	ldr	r3, [r7, #12]
 8001e40:	f883 2200 	strb.w	r2, [r3, #512]	; 0x200
        hcdc->CmdLength = req->wLength;
 8001e44:	683b      	ldr	r3, [r7, #0]
 8001e46:	88db      	ldrh	r3, [r3, #6]
 8001e48:	b2da      	uxtb	r2, r3
 8001e4a:	68fb      	ldr	r3, [r7, #12]
 8001e4c:	f883 2201 	strb.w	r2, [r3, #513]	; 0x201
                           (uint8_t *)hcdc->data,
 8001e50:	68f9      	ldr	r1, [r7, #12]
        USBD_CtlPrepareRx (pdev, 
 8001e52:	683b      	ldr	r3, [r7, #0]
 8001e54:	88db      	ldrh	r3, [r3, #6]
 8001e56:	461a      	mov	r2, r3
 8001e58:	6878      	ldr	r0, [r7, #4]
 8001e5a:	f000 fa06 	bl	800226a <USBD_CtlPrepareRx>
    break;
 8001e5e:	e016      	b.n	8001e8e <USBD_CDC_Setup+0xae>
      ((USBD_CDC_ItfTypeDef *)pdev->pUserData)->Control(req->bRequest,
 8001e60:	687b      	ldr	r3, [r7, #4]
 8001e62:	f8d3 321c 	ldr.w	r3, [r3, #540]	; 0x21c
 8001e66:	689b      	ldr	r3, [r3, #8]
 8001e68:	683a      	ldr	r2, [r7, #0]
 8001e6a:	7850      	ldrb	r0, [r2, #1]
 8001e6c:	2200      	movs	r2, #0
 8001e6e:	6839      	ldr	r1, [r7, #0]
 8001e70:	4798      	blx	r3
    break;
 8001e72:	e00c      	b.n	8001e8e <USBD_CDC_Setup+0xae>
    switch (req->bRequest)
 8001e74:	683b      	ldr	r3, [r7, #0]
 8001e76:	785b      	ldrb	r3, [r3, #1]
 8001e78:	2b0a      	cmp	r3, #10
 8001e7a:	d001      	beq.n	8001e80 <USBD_CDC_Setup+0xa0>
 8001e7c:	2b0b      	cmp	r3, #11
      break;
 8001e7e:	e005      	b.n	8001e8c <USBD_CDC_Setup+0xac>
      USBD_CtlSendData (pdev,
 8001e80:	2201      	movs	r2, #1
 8001e82:	4905      	ldr	r1, [pc, #20]	; (8001e98 <USBD_CDC_Setup+0xb8>)
 8001e84:	6878      	ldr	r0, [r7, #4]
 8001e86:	f000 f9d4 	bl	8002232 <USBD_CtlSendData>
      break;
 8001e8a:	bf00      	nop
    break;
 8001e8c:	bf00      	nop
  }
  return USBD_OK;
 8001e8e:	2300      	movs	r3, #0
}
 8001e90:	4618      	mov	r0, r3
 8001e92:	3710      	adds	r7, #16
 8001e94:	46bd      	mov	sp, r7
 8001e96:	bd80      	pop	{r7, pc}
 8001e98:	200201ec 	.word	0x200201ec

08001e9c <USBD_CDC_DataIn>:
  * @param  pdev: device instance
  * @param  epnum: endpoint number
  * @retval status
  */
static uint8_t  USBD_CDC_DataIn (USBD_HandleTypeDef *pdev, uint8_t epnum)
{
 8001e9c:	b480      	push	{r7}
 8001e9e:	b085      	sub	sp, #20
 8001ea0:	af00      	add	r7, sp, #0
 8001ea2:	6078      	str	r0, [r7, #4]
 8001ea4:	460b      	mov	r3, r1
 8001ea6:	70fb      	strb	r3, [r7, #3]
  USBD_CDC_HandleTypeDef   *hcdc = (USBD_CDC_HandleTypeDef*) pdev->pClassData;
 8001ea8:	687b      	ldr	r3, [r7, #4]
 8001eaa:	f8d3 3218 	ldr.w	r3, [r3, #536]	; 0x218
 8001eae:	60fb      	str	r3, [r7, #12]
  
  if(pdev->pClassData != NULL)
 8001eb0:	687b      	ldr	r3, [r7, #4]
 8001eb2:	f8d3 3218 	ldr.w	r3, [r3, #536]	; 0x218
 8001eb6:	2b00      	cmp	r3, #0
 8001eb8:	d005      	beq.n	8001ec6 <USBD_CDC_DataIn+0x2a>
  {
    
    hcdc->TxState = 0;
 8001eba:	68fb      	ldr	r3, [r7, #12]
 8001ebc:	2200      	movs	r2, #0
 8001ebe:	f8c3 2214 	str.w	r2, [r3, #532]	; 0x214

    return USBD_OK;
 8001ec2:	2300      	movs	r3, #0
 8001ec4:	e000      	b.n	8001ec8 <USBD_CDC_DataIn+0x2c>
  }
  else
  {
    return USBD_FAIL;
 8001ec6:	2302      	movs	r3, #2
  }
}
 8001ec8:	4618      	mov	r0, r3
 8001eca:	3714      	adds	r7, #20
 8001ecc:	46bd      	mov	sp, r7
 8001ece:	f85d 7b04 	ldr.w	r7, [sp], #4
 8001ed2:	4770      	bx	lr

08001ed4 <USBD_CDC_DataOut>:
  * @param  pdev: device instance
  * @param  epnum: endpoint number
  * @retval status
  */
static uint8_t  USBD_CDC_DataOut (USBD_HandleTypeDef *pdev, uint8_t epnum)
{      
 8001ed4:	b580      	push	{r7, lr}
 8001ed6:	b084      	sub	sp, #16
 8001ed8:	af00      	add	r7, sp, #0
 8001eda:	6078      	str	r0, [r7, #4]
 8001edc:	460b      	mov	r3, r1
 8001ede:	70fb      	strb	r3, [r7, #3]
  USBD_CDC_HandleTypeDef   *hcdc = (USBD_CDC_HandleTypeDef*) pdev->pClassData;
 8001ee0:	687b      	ldr	r3, [r7, #4]
 8001ee2:	f8d3 3218 	ldr.w	r3, [r3, #536]	; 0x218
 8001ee6:	60fb      	str	r3, [r7, #12]
  
  /* Get the received data length */
  hcdc->RxLength = USBD_LL_GetRxDataSize (pdev, epnum);
 8001ee8:	78fb      	ldrb	r3, [r7, #3]
 8001eea:	4619      	mov	r1, r3
 8001eec:	6878      	ldr	r0, [r7, #4]
 8001eee:	f000 fd33 	bl	8002958 <USBD_LL_GetRxDataSize>
 8001ef2:	4602      	mov	r2, r0
 8001ef4:	68fb      	ldr	r3, [r7, #12]
 8001ef6:	f8c3 220c 	str.w	r2, [r3, #524]	; 0x20c
  
  /* USB data will be immediately processed, this allow next USB traffic being 
  NAKed till the end of the application Xfer */
  if(pdev->pClassData != NULL)
 8001efa:	687b      	ldr	r3, [r7, #4]
 8001efc:	f8d3 3218 	ldr.w	r3, [r3, #536]	; 0x218
 8001f00:	2b00      	cmp	r3, #0
 8001f02:	d00d      	beq.n	8001f20 <USBD_CDC_DataOut+0x4c>
  {
    ((USBD_CDC_ItfTypeDef *)pdev->pUserData)->Receive(hcdc->RxBuffer, &hcdc->RxLength);
 8001f04:	687b      	ldr	r3, [r7, #4]
 8001f06:	f8d3 321c 	ldr.w	r3, [r3, #540]	; 0x21c
 8001f0a:	68db      	ldr	r3, [r3, #12]
 8001f0c:	68fa      	ldr	r2, [r7, #12]
 8001f0e:	f8d2 0204 	ldr.w	r0, [r2, #516]	; 0x204
 8001f12:	68fa      	ldr	r2, [r7, #12]
 8001f14:	f502 7203 	add.w	r2, r2, #524	; 0x20c
 8001f18:	4611      	mov	r1, r2
 8001f1a:	4798      	blx	r3

    return USBD_OK;
 8001f1c:	2300      	movs	r3, #0
 8001f1e:	e000      	b.n	8001f22 <USBD_CDC_DataOut+0x4e>
  }
  else
  {
    return USBD_FAIL;
 8001f20:	2302      	movs	r3, #2
  }
}
 8001f22:	4618      	mov	r0, r3
 8001f24:	3710      	adds	r7, #16
 8001f26:	46bd      	mov	sp, r7
 8001f28:	bd80      	pop	{r7, pc}

08001f2a <USBD_CDC_EP0_RxReady>:
  * @param  pdev: device instance
  * @param  epnum: endpoint number
  * @retval status
  */
static uint8_t  USBD_CDC_EP0_RxReady (USBD_HandleTypeDef *pdev)
{ 
 8001f2a:	b580      	push	{r7, lr}
 8001f2c:	b084      	sub	sp, #16
 8001f2e:	af00      	add	r7, sp, #0
 8001f30:	6078      	str	r0, [r7, #4]
  USBD_CDC_HandleTypeDef   *hcdc = (USBD_CDC_HandleTypeDef*) pdev->pClassData;
 8001f32:	687b      	ldr	r3, [r7, #4]
 8001f34:	f8d3 3218 	ldr.w	r3, [r3, #536]	; 0x218
 8001f38:	60fb      	str	r3, [r7, #12]
  
  if((pdev->pUserData != NULL) && (hcdc->CmdOpCode != 0xFF))
 8001f3a:	687b      	ldr	r3, [r7, #4]
 8001f3c:	f8d3 321c 	ldr.w	r3, [r3, #540]	; 0x21c
 8001f40:	2b00      	cmp	r3, #0
 8001f42:	d015      	beq.n	8001f70 <USBD_CDC_EP0_RxReady+0x46>
 8001f44:	68fb      	ldr	r3, [r7, #12]
 8001f46:	f893 3200 	ldrb.w	r3, [r3, #512]	; 0x200
 8001f4a:	2bff      	cmp	r3, #255	; 0xff
 8001f4c:	d010      	beq.n	8001f70 <USBD_CDC_EP0_RxReady+0x46>
  {
    ((USBD_CDC_ItfTypeDef *)pdev->pUserData)->Control(hcdc->CmdOpCode,
 8001f4e:	687b      	ldr	r3, [r7, #4]
 8001f50:	f8d3 321c 	ldr.w	r3, [r3, #540]	; 0x21c
 8001f54:	689b      	ldr	r3, [r3, #8]
 8001f56:	68fa      	ldr	r2, [r7, #12]
 8001f58:	f892 0200 	ldrb.w	r0, [r2, #512]	; 0x200
                                                      (uint8_t *)hcdc->data,
 8001f5c:	68f9      	ldr	r1, [r7, #12]
                                                      hcdc->CmdLength);
 8001f5e:	68fa      	ldr	r2, [r7, #12]
 8001f60:	f892 2201 	ldrb.w	r2, [r2, #513]	; 0x201
    ((USBD_CDC_ItfTypeDef *)pdev->pUserData)->Control(hcdc->CmdOpCode,
 8001f64:	b292      	uxth	r2, r2
 8001f66:	4798      	blx	r3
      hcdc->CmdOpCode = 0xFF; 
 8001f68:	68fb      	ldr	r3, [r7, #12]
 8001f6a:	22ff      	movs	r2, #255	; 0xff
 8001f6c:	f883 2200 	strb.w	r2, [r3, #512]	; 0x200
      
  }
  return USBD_OK;
 8001f70:	2300      	movs	r3, #0
}
 8001f72:	4618      	mov	r0, r3
 8001f74:	3710      	adds	r7, #16
 8001f76:	46bd      	mov	sp, r7
 8001f78:	bd80      	pop	{r7, pc}
	...

08001f7c <USBD_CDC_GetFSCfgDesc>:
  * @param  speed : current device speed
  * @param  length : pointer data length
  * @retval pointer to descriptor buffer
  */
static uint8_t  *USBD_CDC_GetFSCfgDesc (uint16_t *length)
{
 8001f7c:	b480      	push	{r7}
 8001f7e:	b083      	sub	sp, #12
 8001f80:	af00      	add	r7, sp, #0
 8001f82:	6078      	str	r0, [r7, #4]
  *length = sizeof (USBD_CDC_CfgFSDesc);
 8001f84:	687b      	ldr	r3, [r7, #4]
 8001f86:	2243      	movs	r2, #67	; 0x43
 8001f88:	801a      	strh	r2, [r3, #0]
  return USBD_CDC_CfgFSDesc;
 8001f8a:	4b03      	ldr	r3, [pc, #12]	; (8001f98 <USBD_CDC_GetFSCfgDesc+0x1c>)
}
 8001f8c:	4618      	mov	r0, r3
 8001f8e:	370c      	adds	r7, #12
 8001f90:	46bd      	mov	sp, r7
 8001f92:	f85d 7b04 	ldr.w	r7, [sp], #4
 8001f96:	4770      	bx	lr
 8001f98:	2002008c 	.word	0x2002008c

08001f9c <USBD_CDC_GetHSCfgDesc>:
  * @param  speed : current device speed
  * @param  length : pointer data length
  * @retval pointer to descriptor buffer
  */
static uint8_t  *USBD_CDC_GetHSCfgDesc (uint16_t *length)
{
 8001f9c:	b480      	push	{r7}
 8001f9e:	b083      	sub	sp, #12
 8001fa0:	af00      	add	r7, sp, #0
 8001fa2:	6078      	str	r0, [r7, #4]
  *length = sizeof (USBD_CDC_CfgHSDesc);
 8001fa4:	687b      	ldr	r3, [r7, #4]
 8001fa6:	2243      	movs	r2, #67	; 0x43
 8001fa8:	801a      	strh	r2, [r3, #0]
  return USBD_CDC_CfgHSDesc;
 8001faa:	4b03      	ldr	r3, [pc, #12]	; (8001fb8 <USBD_CDC_GetHSCfgDesc+0x1c>)
}
 8001fac:	4618      	mov	r0, r3
 8001fae:	370c      	adds	r7, #12
 8001fb0:	46bd      	mov	sp, r7
 8001fb2:	f85d 7b04 	ldr.w	r7, [sp], #4
 8001fb6:	4770      	bx	lr
 8001fb8:	20020048 	.word	0x20020048

08001fbc <USBD_CDC_GetOtherSpeedCfgDesc>:
  * @param  speed : current device speed
  * @param  length : pointer data length
  * @retval pointer to descriptor buffer
  */
static uint8_t  *USBD_CDC_GetOtherSpeedCfgDesc (uint16_t *length)
{
 8001fbc:	b480      	push	{r7}
 8001fbe:	b083      	sub	sp, #12
 8001fc0:	af00      	add	r7, sp, #0
 8001fc2:	6078      	str	r0, [r7, #4]
  *length = sizeof (USBD_CDC_OtherSpeedCfgDesc);
 8001fc4:	687b      	ldr	r3, [r7, #4]
 8001fc6:	2243      	movs	r2, #67	; 0x43
 8001fc8:	801a      	strh	r2, [r3, #0]
  return USBD_CDC_OtherSpeedCfgDesc;
 8001fca:	4b03      	ldr	r3, [pc, #12]	; (8001fd8 <USBD_CDC_GetOtherSpeedCfgDesc+0x1c>)
}
 8001fcc:	4618      	mov	r0, r3
 8001fce:	370c      	adds	r7, #12
 8001fd0:	46bd      	mov	sp, r7
 8001fd2:	f85d 7b04 	ldr.w	r7, [sp], #4
 8001fd6:	4770      	bx	lr
 8001fd8:	200200d0 	.word	0x200200d0

08001fdc <USBD_CDC_GetDeviceQualifierDescriptor>:
*         return Device Qualifier descriptor
* @param  length : pointer data length
* @retval pointer to descriptor buffer
*/
uint8_t  *USBD_CDC_GetDeviceQualifierDescriptor (uint16_t *length)
{
 8001fdc:	b480      	push	{r7}
 8001fde:	b083      	sub	sp, #12
 8001fe0:	af00      	add	r7, sp, #0
 8001fe2:	6078      	str	r0, [r7, #4]
  *length = sizeof (USBD_CDC_DeviceQualifierDesc);
 8001fe4:	687b      	ldr	r3, [r7, #4]
 8001fe6:	220a      	movs	r2, #10
 8001fe8:	801a      	strh	r2, [r3, #0]
  return USBD_CDC_DeviceQualifierDesc;
 8001fea:	4b03      	ldr	r3, [pc, #12]	; (8001ff8 <USBD_CDC_GetDeviceQualifierDescriptor+0x1c>)
}
 8001fec:	4618      	mov	r0, r3
 8001fee:	370c      	adds	r7, #12
 8001ff0:	46bd      	mov	sp, r7
 8001ff2:	f85d 7b04 	ldr.w	r7, [sp], #4
 8001ff6:	4770      	bx	lr
 8001ff8:	20020004 	.word	0x20020004

08001ffc <USBD_CDC_RegisterInterface>:
  * @param  fops: CD  Interface callback
  * @retval status
  */
uint8_t  USBD_CDC_RegisterInterface  (USBD_HandleTypeDef   *pdev, 
                                      USBD_CDC_ItfTypeDef *fops)
{
 8001ffc:	b480      	push	{r7}
 8001ffe:	b085      	sub	sp, #20
 8002000:	af00      	add	r7, sp, #0
 8002002:	6078      	str	r0, [r7, #4]
 8002004:	6039      	str	r1, [r7, #0]
  uint8_t  ret = USBD_FAIL;
 8002006:	2302      	movs	r3, #2
 8002008:	73fb      	strb	r3, [r7, #15]
  
  if(fops != NULL)
 800200a:	683b      	ldr	r3, [r7, #0]
 800200c:	2b00      	cmp	r3, #0
 800200e:	d005      	beq.n	800201c <USBD_CDC_RegisterInterface+0x20>
  {
    pdev->pUserData= fops;
 8002010:	687b      	ldr	r3, [r7, #4]
 8002012:	683a      	ldr	r2, [r7, #0]
 8002014:	f8c3 221c 	str.w	r2, [r3, #540]	; 0x21c
    ret = USBD_OK;    
 8002018:	2300      	movs	r3, #0
 800201a:	73fb      	strb	r3, [r7, #15]
  }
  
  return ret;
 800201c:	7bfb      	ldrb	r3, [r7, #15]
}
 800201e:	4618      	mov	r0, r3
 8002020:	3714      	adds	r7, #20
 8002022:	46bd      	mov	sp, r7
 8002024:	f85d 7b04 	ldr.w	r7, [sp], #4
 8002028:	4770      	bx	lr

0800202a <USBD_CDC_SetTxBuffer>:
  * @retval status
  */
uint8_t  USBD_CDC_SetTxBuffer  (USBD_HandleTypeDef   *pdev,
                                uint8_t  *pbuff,
                                uint16_t length)
{
 800202a:	b480      	push	{r7}
 800202c:	b087      	sub	sp, #28
 800202e:	af00      	add	r7, sp, #0
 8002030:	60f8      	str	r0, [r7, #12]
 8002032:	60b9      	str	r1, [r7, #8]
 8002034:	4613      	mov	r3, r2
 8002036:	80fb      	strh	r3, [r7, #6]
  USBD_CDC_HandleTypeDef   *hcdc = (USBD_CDC_HandleTypeDef*) pdev->pClassData;
 8002038:	68fb      	ldr	r3, [r7, #12]
 800203a:	f8d3 3218 	ldr.w	r3, [r3, #536]	; 0x218
 800203e:	617b      	str	r3, [r7, #20]
  
  hcdc->TxBuffer = pbuff;
 8002040:	697b      	ldr	r3, [r7, #20]
 8002042:	68ba      	ldr	r2, [r7, #8]
 8002044:	f8c3 2208 	str.w	r2, [r3, #520]	; 0x208
  hcdc->TxLength = length;  
 8002048:	88fa      	ldrh	r2, [r7, #6]
 800204a:	697b      	ldr	r3, [r7, #20]
 800204c:	f8c3 2210 	str.w	r2, [r3, #528]	; 0x210
  
  return USBD_OK;  
 8002050:	2300      	movs	r3, #0
}
 8002052:	4618      	mov	r0, r3
 8002054:	371c      	adds	r7, #28
 8002056:	46bd      	mov	sp, r7
 8002058:	f85d 7b04 	ldr.w	r7, [sp], #4
 800205c:	4770      	bx	lr

0800205e <USBD_CDC_SetRxBuffer>:
  * @param  pbuff: Rx Buffer
  * @retval status
  */
uint8_t  USBD_CDC_SetRxBuffer  (USBD_HandleTypeDef   *pdev,
                                   uint8_t  *pbuff)
{
 800205e:	b480      	push	{r7}
 8002060:	b085      	sub	sp, #20
 8002062:	af00      	add	r7, sp, #0
 8002064:	6078      	str	r0, [r7, #4]
 8002066:	6039      	str	r1, [r7, #0]
  USBD_CDC_HandleTypeDef   *hcdc = (USBD_CDC_HandleTypeDef*) pdev->pClassData;
 8002068:	687b      	ldr	r3, [r7, #4]
 800206a:	f8d3 3218 	ldr.w	r3, [r3, #536]	; 0x218
 800206e:	60fb      	str	r3, [r7, #12]
  
  hcdc->RxBuffer = pbuff;
 8002070:	68fb      	ldr	r3, [r7, #12]
 8002072:	683a      	ldr	r2, [r7, #0]
 8002074:	f8c3 2204 	str.w	r2, [r3, #516]	; 0x204
  
  return USBD_OK;
 8002078:	2300      	movs	r3, #0
}
 800207a:	4618      	mov	r0, r3
 800207c:	3714      	adds	r7, #20
 800207e:	46bd      	mov	sp, r7
 8002080:	f85d 7b04 	ldr.w	r7, [sp], #4
 8002084:	4770      	bx	lr

08002086 <USBD_CDC_ReceivePacket>:
  *         prepare OUT Endpoint for reception
  * @param  pdev: device instance
  * @retval status
  */
uint8_t  USBD_CDC_ReceivePacket(USBD_HandleTypeDef *pdev)
{      
 8002086:	b580      	push	{r7, lr}
 8002088:	b084      	sub	sp, #16
 800208a:	af00      	add	r7, sp, #0
 800208c:	6078      	str	r0, [r7, #4]
  USBD_CDC_HandleTypeDef   *hcdc = (USBD_CDC_HandleTypeDef*) pdev->pClassData;
 800208e:	687b      	ldr	r3, [r7, #4]
 8002090:	f8d3 3218 	ldr.w	r3, [r3, #536]	; 0x218
 8002094:	60fb      	str	r3, [r7, #12]
  
  /* Suspend or Resume USB Out process */
  if(pdev->pClassData != NULL)
 8002096:	687b      	ldr	r3, [r7, #4]
 8002098:	f8d3 3218 	ldr.w	r3, [r3, #536]	; 0x218
 800209c:	2b00      	cmp	r3, #0
 800209e:	d017      	beq.n	80020d0 <USBD_CDC_ReceivePacket+0x4a>
  {
    if(pdev->dev_speed == USBD_SPEED_HIGH  ) 
 80020a0:	687b      	ldr	r3, [r7, #4]
 80020a2:	7c1b      	ldrb	r3, [r3, #16]
 80020a4:	2b00      	cmp	r3, #0
 80020a6:	d109      	bne.n	80020bc <USBD_CDC_ReceivePacket+0x36>
    {      
      /* Prepare Out endpoint to receive next packet */
      USBD_LL_PrepareReceive(pdev,
 80020a8:	68fb      	ldr	r3, [r7, #12]
 80020aa:	f8d3 2204 	ldr.w	r2, [r3, #516]	; 0x204
 80020ae:	f44f 7300 	mov.w	r3, #512	; 0x200
 80020b2:	2101      	movs	r1, #1
 80020b4:	6878      	ldr	r0, [r7, #4]
 80020b6:	f000 fc15 	bl	80028e4 <USBD_LL_PrepareReceive>
 80020ba:	e007      	b.n	80020cc <USBD_CDC_ReceivePacket+0x46>
                             CDC_DATA_HS_OUT_PACKET_SIZE);
    }
    else
    {
      /* Prepare Out endpoint to receive next packet */
      USBD_LL_PrepareReceive(pdev,
 80020bc:	68fb      	ldr	r3, [r7, #12]
 80020be:	f8d3 2204 	ldr.w	r2, [r3, #516]	; 0x204
 80020c2:	2340      	movs	r3, #64	; 0x40
 80020c4:	2101      	movs	r1, #1
 80020c6:	6878      	ldr	r0, [r7, #4]
 80020c8:	f000 fc0c 	bl	80028e4 <USBD_LL_PrepareReceive>
                             CDC_OUT_EP,
                             hcdc->RxBuffer,
                             CDC_DATA_FS_OUT_PACKET_SIZE);
    }
    return USBD_OK;
 80020cc:	2300      	movs	r3, #0
 80020ce:	e000      	b.n	80020d2 <USBD_CDC_ReceivePacket+0x4c>
  }
  else
  {
    return USBD_FAIL;
 80020d0:	2302      	movs	r3, #2
  }
}
 80020d2:	4618      	mov	r0, r3
 80020d4:	3710      	adds	r7, #16
 80020d6:	46bd      	mov	sp, r7
 80020d8:	bd80      	pop	{r7, pc}

080020da <USBD_Init>:
* @param  pdesc: Descriptor structure address
* @param  id: Low level core index
* @retval None
*/
USBD_StatusTypeDef USBD_Init(USBD_HandleTypeDef *pdev, USBD_DescriptorsTypeDef *pdesc, uint8_t id)
{
 80020da:	b580      	push	{r7, lr}
 80020dc:	b084      	sub	sp, #16
 80020de:	af00      	add	r7, sp, #0
 80020e0:	60f8      	str	r0, [r7, #12]
 80020e2:	60b9      	str	r1, [r7, #8]
 80020e4:	4613      	mov	r3, r2
 80020e6:	71fb      	strb	r3, [r7, #7]
  /* Check whether the USB Host handle is valid */
  if(pdev == NULL)
 80020e8:	68fb      	ldr	r3, [r7, #12]
 80020ea:	2b00      	cmp	r3, #0
 80020ec:	d101      	bne.n	80020f2 <USBD_Init+0x18>
  {
    USBD_ErrLog("Invalid Device handle");
    return USBD_FAIL; 
 80020ee:	2302      	movs	r3, #2
 80020f0:	e01a      	b.n	8002128 <USBD_Init+0x4e>
  }
  
  /* Unlink previous class*/
  if(pdev->pClass != NULL)
 80020f2:	68fb      	ldr	r3, [r7, #12]
 80020f4:	f8d3 3214 	ldr.w	r3, [r3, #532]	; 0x214
 80020f8:	2b00      	cmp	r3, #0
 80020fa:	d003      	beq.n	8002104 <USBD_Init+0x2a>
  {
    pdev->pClass = NULL;
 80020fc:	68fb      	ldr	r3, [r7, #12]
 80020fe:	2200      	movs	r2, #0
 8002100:	f8c3 2214 	str.w	r2, [r3, #532]	; 0x214
  }
  
  /* Assign USBD Descriptors */
  if(pdesc != NULL)
 8002104:	68bb      	ldr	r3, [r7, #8]
 8002106:	2b00      	cmp	r3, #0
 8002108:	d003      	beq.n	8002112 <USBD_Init+0x38>
  {
    pdev->pDesc = pdesc;
 800210a:	68fb      	ldr	r3, [r7, #12]
 800210c:	68ba      	ldr	r2, [r7, #8]
 800210e:	f8c3 2210 	str.w	r2, [r3, #528]	; 0x210
  }
  
  /* Set Device initial State */
  pdev->dev_state  = USBD_STATE_DEFAULT;
 8002112:	68fb      	ldr	r3, [r7, #12]
 8002114:	2201      	movs	r2, #1
 8002116:	f883 21fc 	strb.w	r2, [r3, #508]	; 0x1fc
  pdev->id = id;
 800211a:	68fb      	ldr	r3, [r7, #12]
 800211c:	79fa      	ldrb	r2, [r7, #7]
 800211e:	701a      	strb	r2, [r3, #0]
  /* Initialize low level driver */
  USBD_LL_Init(pdev);
 8002120:	68f8      	ldr	r0, [r7, #12]
 8002122:	f000 faab 	bl	800267c <USBD_LL_Init>
  
  return USBD_OK; 
 8002126:	2300      	movs	r3, #0
}
 8002128:	4618      	mov	r0, r3
 800212a:	3710      	adds	r7, #16
 800212c:	46bd      	mov	sp, r7
 800212e:	bd80      	pop	{r7, pc}

08002130 <USBD_RegisterClass>:
  * @param  pDevice : Device Handle
  * @param  pclass: Class handle
  * @retval USBD Status
  */
USBD_StatusTypeDef  USBD_RegisterClass(USBD_HandleTypeDef *pdev, USBD_ClassTypeDef *pclass)
{
 8002130:	b480      	push	{r7}
 8002132:	b085      	sub	sp, #20
 8002134:	af00      	add	r7, sp, #0
 8002136:	6078      	str	r0, [r7, #4]
 8002138:	6039      	str	r1, [r7, #0]
  USBD_StatusTypeDef   status = USBD_OK;
 800213a:	2300      	movs	r3, #0
 800213c:	73fb      	strb	r3, [r7, #15]
  if(pclass != 0)
 800213e:	683b      	ldr	r3, [r7, #0]
 8002140:	2b00      	cmp	r3, #0
 8002142:	d006      	beq.n	8002152 <USBD_RegisterClass+0x22>
  {
    /* link the class to the USB Device handle */
    pdev->pClass = pclass;
 8002144:	687b      	ldr	r3, [r7, #4]
 8002146:	683a      	ldr	r2, [r7, #0]
 8002148:	f8c3 2214 	str.w	r2, [r3, #532]	; 0x214
    status = USBD_OK;
 800214c:	2300      	movs	r3, #0
 800214e:	73fb      	strb	r3, [r7, #15]
 8002150:	e001      	b.n	8002156 <USBD_RegisterClass+0x26>
  }
  else
  {
    USBD_ErrLog("Invalid Class handle");
    status = USBD_FAIL; 
 8002152:	2302      	movs	r3, #2
 8002154:	73fb      	strb	r3, [r7, #15]
  }
  
  return status;
 8002156:	7bfb      	ldrb	r3, [r7, #15]
}
 8002158:	4618      	mov	r0, r3
 800215a:	3714      	adds	r7, #20
 800215c:	46bd      	mov	sp, r7
 800215e:	f85d 7b04 	ldr.w	r7, [sp], #4
 8002162:	4770      	bx	lr

08002164 <USBD_Start>:
  *         Start the USB Device Core.
  * @param  pdev: Device Handle
  * @retval USBD Status
  */
USBD_StatusTypeDef  USBD_Start  (USBD_HandleTypeDef *pdev)
{
 8002164:	b580      	push	{r7, lr}
 8002166:	b082      	sub	sp, #8
 8002168:	af00      	add	r7, sp, #0
 800216a:	6078      	str	r0, [r7, #4]
  
  /* Start the low level driver  */
  USBD_LL_Start(pdev); 
 800216c:	6878      	ldr	r0, [r7, #4]
 800216e:	f000 fad9 	bl	8002724 <USBD_LL_Start>
  
  return USBD_OK;  
 8002172:	2300      	movs	r3, #0
}
 8002174:	4618      	mov	r0, r3
 8002176:	3708      	adds	r7, #8
 8002178:	46bd      	mov	sp, r7
 800217a:	bd80      	pop	{r7, pc}

0800217c <USBD_GetString>:
  * @param  unicode : Formatted string buffer (unicode)
  * @param  len : descriptor length
  * @retval None
  */
void USBD_GetString(uint8_t *desc, uint8_t *unicode, uint16_t *len)
{
 800217c:	b580      	push	{r7, lr}
 800217e:	b086      	sub	sp, #24
 8002180:	af00      	add	r7, sp, #0
 8002182:	60f8      	str	r0, [r7, #12]
 8002184:	60b9      	str	r1, [r7, #8]
 8002186:	607a      	str	r2, [r7, #4]
  uint8_t idx = 0;
 8002188:	2300      	movs	r3, #0
 800218a:	75fb      	strb	r3, [r7, #23]
  
  if (desc != NULL) 
 800218c:	68fb      	ldr	r3, [r7, #12]
 800218e:	2b00      	cmp	r3, #0
 8002190:	d033      	beq.n	80021fa <USBD_GetString+0x7e>
  {
    *len =  USBD_GetLen(desc) * 2 + 2;    
 8002192:	68f8      	ldr	r0, [r7, #12]
 8002194:	f000 f835 	bl	8002202 <USBD_GetLen>
 8002198:	4603      	mov	r3, r0
 800219a:	3301      	adds	r3, #1
 800219c:	b29b      	uxth	r3, r3
 800219e:	005b      	lsls	r3, r3, #1
 80021a0:	b29a      	uxth	r2, r3
 80021a2:	687b      	ldr	r3, [r7, #4]
 80021a4:	801a      	strh	r2, [r3, #0]
    unicode[idx++] = *len;
 80021a6:	7dfb      	ldrb	r3, [r7, #23]
 80021a8:	1c5a      	adds	r2, r3, #1
 80021aa:	75fa      	strb	r2, [r7, #23]
 80021ac:	461a      	mov	r2, r3
 80021ae:	68bb      	ldr	r3, [r7, #8]
 80021b0:	4413      	add	r3, r2
 80021b2:	687a      	ldr	r2, [r7, #4]
 80021b4:	8812      	ldrh	r2, [r2, #0]
 80021b6:	b2d2      	uxtb	r2, r2
 80021b8:	701a      	strb	r2, [r3, #0]
    unicode[idx++] =  USB_DESC_TYPE_STRING;
 80021ba:	7dfb      	ldrb	r3, [r7, #23]
 80021bc:	1c5a      	adds	r2, r3, #1
 80021be:	75fa      	strb	r2, [r7, #23]
 80021c0:	461a      	mov	r2, r3
 80021c2:	68bb      	ldr	r3, [r7, #8]
 80021c4:	4413      	add	r3, r2
 80021c6:	2203      	movs	r2, #3
 80021c8:	701a      	strb	r2, [r3, #0]
    
    while (*desc != '\0') 
 80021ca:	e012      	b.n	80021f2 <USBD_GetString+0x76>
    {
      unicode[idx++] = *desc++;
 80021cc:	7dfb      	ldrb	r3, [r7, #23]
 80021ce:	1c5a      	adds	r2, r3, #1
 80021d0:	75fa      	strb	r2, [r7, #23]
 80021d2:	461a      	mov	r2, r3
 80021d4:	68bb      	ldr	r3, [r7, #8]
 80021d6:	441a      	add	r2, r3
 80021d8:	68fb      	ldr	r3, [r7, #12]
 80021da:	1c59      	adds	r1, r3, #1
 80021dc:	60f9      	str	r1, [r7, #12]
 80021de:	781b      	ldrb	r3, [r3, #0]
 80021e0:	7013      	strb	r3, [r2, #0]
      unicode[idx++] =  0x00;
 80021e2:	7dfb      	ldrb	r3, [r7, #23]
 80021e4:	1c5a      	adds	r2, r3, #1
 80021e6:	75fa      	strb	r2, [r7, #23]
 80021e8:	461a      	mov	r2, r3
 80021ea:	68bb      	ldr	r3, [r7, #8]
 80021ec:	4413      	add	r3, r2
 80021ee:	2200      	movs	r2, #0
 80021f0:	701a      	strb	r2, [r3, #0]
    while (*desc != '\0') 
 80021f2:	68fb      	ldr	r3, [r7, #12]
 80021f4:	781b      	ldrb	r3, [r3, #0]
 80021f6:	2b00      	cmp	r3, #0
 80021f8:	d1e8      	bne.n	80021cc <USBD_GetString+0x50>
    }
  } 
}
 80021fa:	bf00      	nop
 80021fc:	3718      	adds	r7, #24
 80021fe:	46bd      	mov	sp, r7
 8002200:	bd80      	pop	{r7, pc}

08002202 <USBD_GetLen>:
  *         return the string length
   * @param  buf : pointer to the ascii string buffer
  * @retval string length
  */
static uint8_t USBD_GetLen(uint8_t *buf)
{
 8002202:	b480      	push	{r7}
 8002204:	b085      	sub	sp, #20
 8002206:	af00      	add	r7, sp, #0
 8002208:	6078      	str	r0, [r7, #4]
    uint8_t  len = 0;
 800220a:	2300      	movs	r3, #0
 800220c:	73fb      	strb	r3, [r7, #15]

    while (*buf != '\0') 
 800220e:	e005      	b.n	800221c <USBD_GetLen+0x1a>
    {
        len++;
 8002210:	7bfb      	ldrb	r3, [r7, #15]
 8002212:	3301      	adds	r3, #1
 8002214:	73fb      	strb	r3, [r7, #15]
        buf++;
 8002216:	687b      	ldr	r3, [r7, #4]
 8002218:	3301      	adds	r3, #1
 800221a:	607b      	str	r3, [r7, #4]
    while (*buf != '\0') 
 800221c:	687b      	ldr	r3, [r7, #4]
 800221e:	781b      	ldrb	r3, [r3, #0]
 8002220:	2b00      	cmp	r3, #0
 8002222:	d1f5      	bne.n	8002210 <USBD_GetLen+0xe>
    }

    return len;
 8002224:	7bfb      	ldrb	r3, [r7, #15]
}
 8002226:	4618      	mov	r0, r3
 8002228:	3714      	adds	r7, #20
 800222a:	46bd      	mov	sp, r7
 800222c:	f85d 7b04 	ldr.w	r7, [sp], #4
 8002230:	4770      	bx	lr

08002232 <USBD_CtlSendData>:
* @retval status
*/
USBD_StatusTypeDef  USBD_CtlSendData (USBD_HandleTypeDef  *pdev, 
                               uint8_t *pbuf,
                               uint16_t len)
{
 8002232:	b580      	push	{r7, lr}
 8002234:	b084      	sub	sp, #16
 8002236:	af00      	add	r7, sp, #0
 8002238:	60f8      	str	r0, [r7, #12]
 800223a:	60b9      	str	r1, [r7, #8]
 800223c:	4613      	mov	r3, r2
 800223e:	80fb      	strh	r3, [r7, #6]
  /* Set EP0 State */
  pdev->ep0_state          = USBD_EP0_DATA_IN;                                      
 8002240:	68fb      	ldr	r3, [r7, #12]
 8002242:	2202      	movs	r2, #2
 8002244:	f8c3 21f4 	str.w	r2, [r3, #500]	; 0x1f4
  pdev->ep_in[0].total_length = len;
 8002248:	88fa      	ldrh	r2, [r7, #6]
 800224a:	68fb      	ldr	r3, [r7, #12]
 800224c:	619a      	str	r2, [r3, #24]
  pdev->ep_in[0].rem_length   = len;
 800224e:	88fa      	ldrh	r2, [r7, #6]
 8002250:	68fb      	ldr	r3, [r7, #12]
 8002252:	61da      	str	r2, [r3, #28]
 /* Start the transfer */
  USBD_LL_Transmit (pdev, 0x00, pbuf, len);  
 8002254:	88fb      	ldrh	r3, [r7, #6]
 8002256:	68ba      	ldr	r2, [r7, #8]
 8002258:	2100      	movs	r1, #0
 800225a:	68f8      	ldr	r0, [r7, #12]
 800225c:	f000 fb08 	bl	8002870 <USBD_LL_Transmit>
  
  return USBD_OK;
 8002260:	2300      	movs	r3, #0
}
 8002262:	4618      	mov	r0, r3
 8002264:	3710      	adds	r7, #16
 8002266:	46bd      	mov	sp, r7
 8002268:	bd80      	pop	{r7, pc}

0800226a <USBD_CtlPrepareRx>:
* @retval status
*/
USBD_StatusTypeDef  USBD_CtlPrepareRx (USBD_HandleTypeDef  *pdev,
                                  uint8_t *pbuf,                                  
                                  uint16_t len)
{
 800226a:	b580      	push	{r7, lr}
 800226c:	b084      	sub	sp, #16
 800226e:	af00      	add	r7, sp, #0
 8002270:	60f8      	str	r0, [r7, #12]
 8002272:	60b9      	str	r1, [r7, #8]
 8002274:	4613      	mov	r3, r2
 8002276:	80fb      	strh	r3, [r7, #6]
  /* Set EP0 State */
  pdev->ep0_state = USBD_EP0_DATA_OUT; 
 8002278:	68fb      	ldr	r3, [r7, #12]
 800227a:	2203      	movs	r2, #3
 800227c:	f8c3 21f4 	str.w	r2, [r3, #500]	; 0x1f4
  pdev->ep_out[0].total_length = len;
 8002280:	88fa      	ldrh	r2, [r7, #6]
 8002282:	68fb      	ldr	r3, [r7, #12]
 8002284:	f8c3 2108 	str.w	r2, [r3, #264]	; 0x108
  pdev->ep_out[0].rem_length   = len;
 8002288:	88fa      	ldrh	r2, [r7, #6]
 800228a:	68fb      	ldr	r3, [r7, #12]
 800228c:	f8c3 210c 	str.w	r2, [r3, #268]	; 0x10c
  /* Start the transfer */
  USBD_LL_PrepareReceive (pdev,
 8002290:	88fb      	ldrh	r3, [r7, #6]
 8002292:	68ba      	ldr	r2, [r7, #8]
 8002294:	2100      	movs	r1, #0
 8002296:	68f8      	ldr	r0, [r7, #12]
 8002298:	f000 fb24 	bl	80028e4 <USBD_LL_PrepareReceive>
                          0,
                          pbuf,
                         len);
  
  return USBD_OK;
 800229c:	2300      	movs	r3, #0
}
 800229e:	4618      	mov	r0, r3
 80022a0:	3710      	adds	r7, #16
 80022a2:	46bd      	mov	sp, r7
 80022a4:	bd80      	pop	{r7, pc}
	...

080022a8 <NVIC_SetPriority>:
{
 80022a8:	b480      	push	{r7}
 80022aa:	b083      	sub	sp, #12
 80022ac:	af00      	add	r7, sp, #0
 80022ae:	4603      	mov	r3, r0
 80022b0:	6039      	str	r1, [r7, #0]
 80022b2:	71fb      	strb	r3, [r7, #7]
  if ((int32_t)(IRQn) < 0)
 80022b4:	f997 3007 	ldrsb.w	r3, [r7, #7]
 80022b8:	2b00      	cmp	r3, #0
 80022ba:	da0c      	bge.n	80022d6 <NVIC_SetPriority+0x2e>
    SCB->SHPR[(((uint32_t)(int32_t)IRQn) & 0xFUL)-4UL] = (uint8_t)((priority << (8U - __NVIC_PRIO_BITS)) & (uint32_t)0xFFUL);
 80022bc:	490e      	ldr	r1, [pc, #56]	; (80022f8 <NVIC_SetPriority+0x50>)
 80022be:	f997 3007 	ldrsb.w	r3, [r7, #7]
 80022c2:	f003 030f 	and.w	r3, r3, #15
 80022c6:	3b04      	subs	r3, #4
 80022c8:	683a      	ldr	r2, [r7, #0]
 80022ca:	b2d2      	uxtb	r2, r2
 80022cc:	0112      	lsls	r2, r2, #4
 80022ce:	b2d2      	uxtb	r2, r2
 80022d0:	440b      	add	r3, r1
 80022d2:	761a      	strb	r2, [r3, #24]
}
 80022d4:	e009      	b.n	80022ea <NVIC_SetPriority+0x42>
    NVIC->IP[((uint32_t)(int32_t)IRQn)]                = (uint8_t)((priority << (8U - __NVIC_PRIO_BITS)) & (uint32_t)0xFFUL);
 80022d6:	4909      	ldr	r1, [pc, #36]	; (80022fc <NVIC_SetPriority+0x54>)
 80022d8:	f997 3007 	ldrsb.w	r3, [r7, #7]
 80022dc:	683a      	ldr	r2, [r7, #0]
 80022de:	b2d2      	uxtb	r2, r2
 80022e0:	0112      	lsls	r2, r2, #4
 80022e2:	b2d2      	uxtb	r2, r2
 80022e4:	440b      	add	r3, r1
 80022e6:	f883 2300 	strb.w	r2, [r3, #768]	; 0x300
}
 80022ea:	bf00      	nop
 80022ec:	370c      	adds	r7, #12
 80022ee:	46bd      	mov	sp, r7
 80022f0:	f85d 7b04 	ldr.w	r7, [sp], #4
 80022f4:	4770      	bx	lr
 80022f6:	bf00      	nop
 80022f8:	e000ed00 	.word	0xe000ed00
 80022fc:	e000e100 	.word	0xe000e100

08002300 <SysTick_Config>:
  \note    When the variable <b>__Vendor_SysTickConfig</b> is set to 1, then the
           function <b>SysTick_Config</b> is not included. In this case, the file <b><i>device</i>.h</b>
           must contain a vendor-specific implementation of this function.
 */
__STATIC_INLINE uint32_t SysTick_Config(uint32_t ticks)
{
 8002300:	b580      	push	{r7, lr}
 8002302:	b082      	sub	sp, #8
 8002304:	af00      	add	r7, sp, #0
 8002306:	6078      	str	r0, [r7, #4]
  if ((ticks - 1UL) > SysTick_LOAD_RELOAD_Msk)
 8002308:	687b      	ldr	r3, [r7, #4]
 800230a:	3b01      	subs	r3, #1
 800230c:	f1b3 7f80 	cmp.w	r3, #16777216	; 0x1000000
 8002310:	d301      	bcc.n	8002316 <SysTick_Config+0x16>
  {
    return (1UL);                                                   /* Reload value impossible */
 8002312:	2301      	movs	r3, #1
 8002314:	e00f      	b.n	8002336 <SysTick_Config+0x36>
  }

  SysTick->LOAD  = (uint32_t)(ticks - 1UL);                         /* set reload register */
 8002316:	4a0a      	ldr	r2, [pc, #40]	; (8002340 <SysTick_Config+0x40>)
 8002318:	687b      	ldr	r3, [r7, #4]
 800231a:	3b01      	subs	r3, #1
 800231c:	6053      	str	r3, [r2, #4]
  NVIC_SetPriority (SysTick_IRQn, (1UL << __NVIC_PRIO_BITS) - 1UL); /* set Priority for Systick Interrupt */
 800231e:	210f      	movs	r1, #15
 8002320:	f04f 30ff 	mov.w	r0, #4294967295
 8002324:	f7ff ffc0 	bl	80022a8 <NVIC_SetPriority>
  SysTick->VAL   = 0UL;                                             /* Load the SysTick Counter Value */
 8002328:	4b05      	ldr	r3, [pc, #20]	; (8002340 <SysTick_Config+0x40>)
 800232a:	2200      	movs	r2, #0
 800232c:	609a      	str	r2, [r3, #8]
  SysTick->CTRL  = SysTick_CTRL_CLKSOURCE_Msk |
 800232e:	4b04      	ldr	r3, [pc, #16]	; (8002340 <SysTick_Config+0x40>)
 8002330:	2207      	movs	r2, #7
 8002332:	601a      	str	r2, [r3, #0]
                   SysTick_CTRL_TICKINT_Msk   |
                   SysTick_CTRL_ENABLE_Msk;                         /* Enable SysTick IRQ and SysTick Timer */
  return (0UL);                                                     /* Function successful */
 8002334:	2300      	movs	r3, #0
}
 8002336:	4618      	mov	r0, r3
 8002338:	3708      	adds	r7, #8
 800233a:	46bd      	mov	sp, r7
 800233c:	bd80      	pop	{r7, pc}
 800233e:	bf00      	nop
 8002340:	e000e010 	.word	0xe000e010

08002344 <SysTick_Handler>:
*/
#include "usb_device.h"

extern "C"{
	//para uso do HAL_Delay?
	void SysTick_Handler(void){
 8002344:	b580      	push	{r7, lr}
 8002346:	af00      	add	r7, sp, #0
		HAL_IncTick();
 8002348:	f7fd ff76 	bl	8000238 <HAL_IncTick>
		HAL_SYSTICK_IRQHandler();
 800234c:	f7fe f863 	bl	8000416 <HAL_SYSTICK_IRQHandler>
	}
 8002350:	bf00      	nop
 8002352:	bd80      	pop	{r7, pc}

08002354 <main>:
**  Abstract: main program
**
**===========================================================================
*/
int main(void)
{
 8002354:	b580      	push	{r7, lr}
 8002356:	b082      	sub	sp, #8
 8002358:	af00      	add	r7, sp, #0
//	HAL_GPIO_Init(GPIOC,&GPIO_Init_Struct);
//	HAL_GPIO_WritePin(GPIOC,GPIO_PIN_0,GPIO_PIN_RESET);
//	HAL_GPIO_WritePin(GPIOC,GPIO_PIN_1,GPIO_PIN_RESET);
//	HAL_GPIO_WritePin(GPIOC,GPIO_PIN_2,GPIO_PIN_RESET);

	RCC->AHB1ENR = RCC_AHB1ENR_GPIOCEN;
 800235a:	4b1b      	ldr	r3, [pc, #108]	; (80023c8 <main+0x74>)
 800235c:	2204      	movs	r2, #4
 800235e:	631a      	str	r2, [r3, #48]	; 0x30
	//FIM da configurao do CLK do GPIO dos LEDs.

	SysTick_Config(SystemCoreClock / 1000);//SysTick  configurado para gerar 1 IRQ a cada 1 ms (para uso no HAL_Delay()
 8002360:	4b1a      	ldr	r3, [pc, #104]	; (80023cc <main+0x78>)
 8002362:	681b      	ldr	r3, [r3, #0]
 8002364:	4a1a      	ldr	r2, [pc, #104]	; (80023d0 <main+0x7c>)
 8002366:	fba2 2303 	umull	r2, r3, r2, r3
 800236a:	099b      	lsrs	r3, r3, #6
 800236c:	4618      	mov	r0, r3
 800236e:	f7ff ffc7 	bl	8002300 <SysTick_Config>

	GPIO_TypeDef* gpio_leds = GPIOC;
 8002372:	4b18      	ldr	r3, [pc, #96]	; (80023d4 <main+0x80>)
 8002374:	607b      	str	r3, [r7, #4]
	gpio_leds->MODER = GPIO_MODER_MODER0_0|GPIO_MODER_MODER1_0|GPIO_MODER_MODER2_0;//configurando PC0,1,2 como general output
 8002376:	687b      	ldr	r3, [r7, #4]
 8002378:	2215      	movs	r2, #21
 800237a:	601a      	str	r2, [r3, #0]
	gpio_leds->OTYPER= GPIO_OTYPER_OT_0|GPIO_OTYPER_OT_1|GPIO_OTYPER_OT_2;//open drain
 800237c:	687b      	ldr	r3, [r7, #4]
 800237e:	2207      	movs	r2, #7
 8002380:	605a      	str	r2, [r3, #4]
	gpio_leds->PUPDR = 0x00000000;//sem pull-up, sem pull-down
 8002382:	687b      	ldr	r3, [r7, #4]
 8002384:	2200      	movs	r2, #0
 8002386:	60da      	str	r2, [r3, #12]
	gpio_leds->OSPEEDR=0x00000000;//low speed
 8002388:	687b      	ldr	r3, [r7, #4]
 800238a:	2200      	movs	r2, #0
 800238c:	609a      	str	r2, [r3, #8]
	gpio_leds->BSRR	 = GPIO_BSRR_BS_0 | GPIO_BSRR_BS_1 | GPIO_BSRR_BS_2;//apaga todos os leds
 800238e:	687b      	ldr	r3, [r7, #4]
 8002390:	2207      	movs	r2, #7
 8002392:	619a      	str	r2, [r3, #24]
	gpio_leds->BSRR  = GPIO_BSRR_BR_0;//reseta PC0. Led vermelho acende
 8002394:	687b      	ldr	r3, [r7, #4]
 8002396:	f44f 3280 	mov.w	r2, #65536	; 0x10000
 800239a:	619a      	str	r2, [r3, #24]
	//FIM da configurao de GPIO dos LEDs.
	//for(int i=0;i<0x3fffff;i++);
	HAL_Delay(500);
 800239c:	f44f 70fa 	mov.w	r0, #500	; 0x1f4
 80023a0:	f7fd ff6a 	bl	8000278 <HAL_Delay>

	//inicializao do USB
	gpio_leds->BSRR	 = GPIO_BSRR_BS_0 | GPIO_BSRR_BS_1 | GPIO_BSRR_BS_2;//apaga todos os leds
 80023a4:	687b      	ldr	r3, [r7, #4]
 80023a6:	2207      	movs	r2, #7
 80023a8:	619a      	str	r2, [r3, #24]
	gpio_leds->BSRR  = GPIO_BSRR_BR_1;//reseta PC1 (acende Led verde)
 80023aa:	687b      	ldr	r3, [r7, #4]
 80023ac:	f44f 3200 	mov.w	r2, #131072	; 0x20000
 80023b0:	619a      	str	r2, [r3, #24]
	MX_USB_DEVICE_Init();
 80023b2:	f000 f877 	bl	80024a4 <MX_USB_DEVICE_Init>
	gpio_leds->BSRR	 = GPIO_BSRR_BS_0 | GPIO_BSRR_BS_1 | GPIO_BSRR_BS_2;//apaga todos os leds
 80023b6:	687b      	ldr	r3, [r7, #4]
 80023b8:	2207      	movs	r2, #7
 80023ba:	619a      	str	r2, [r3, #24]
	gpio_leds->BSRR  = GPIO_BSRR_BR_2;//reseta PC2 (acende Led azul)
 80023bc:	687b      	ldr	r3, [r7, #4]
 80023be:	f44f 2280 	mov.w	r2, #262144	; 0x40000
 80023c2:	619a      	str	r2, [r3, #24]
			&t1 );

	vTaskStartScheduler();
*/

	while (1);
 80023c4:	e7fe      	b.n	80023c4 <main+0x70>
 80023c6:	bf00      	nop
 80023c8:	40023800 	.word	0x40023800
 80023cc:	20020114 	.word	0x20020114
 80023d0:	10624dd3 	.word	0x10624dd3
 80023d4:	40020800 	.word	0x40020800

080023d8 <_Error_Handler>:
  * @param  file: The file name as string.
  * @param  line: The line in file as a number.
  * @retval None
  */
void _Error_Handler(char *file, int line)
{
 80023d8:	b480      	push	{r7}
 80023da:	b083      	sub	sp, #12
 80023dc:	af00      	add	r7, sp, #0
 80023de:	6078      	str	r0, [r7, #4]
 80023e0:	6039      	str	r1, [r7, #0]
  /* USER CODE BEGIN Error_Handler_Debug */
  /* User can add his own implementation to report the HAL error return state */
  while(1)
 80023e2:	e7fe      	b.n	80023e2 <_Error_Handler+0xa>

080023e4 <Reset_Handler>:

    .section  .text.Reset_Handler
  .weak  Reset_Handler
  .type  Reset_Handler, %function
Reset_Handler:  
  ldr   sp, =_estack      /* set stack pointer */
 80023e4:	f8df d034 	ldr.w	sp, [pc, #52]	; 800241c <LoopFillZerobss+0x14>

/* Copy the data segment initializers from flash to SRAM */  
  movs  r1, #0
 80023e8:	2100      	movs	r1, #0
  b  LoopCopyDataInit
 80023ea:	e003      	b.n	80023f4 <LoopCopyDataInit>

080023ec <CopyDataInit>:

CopyDataInit:
  ldr  r3, =_sidata
 80023ec:	4b0c      	ldr	r3, [pc, #48]	; (8002420 <LoopFillZerobss+0x18>)
  ldr  r3, [r3, r1]
 80023ee:	585b      	ldr	r3, [r3, r1]
  str  r3, [r0, r1]
 80023f0:	5043      	str	r3, [r0, r1]
  adds  r1, r1, #4
 80023f2:	3104      	adds	r1, #4

080023f4 <LoopCopyDataInit>:
    
LoopCopyDataInit:
  ldr  r0, =_sdata
 80023f4:	480b      	ldr	r0, [pc, #44]	; (8002424 <LoopFillZerobss+0x1c>)
  ldr  r3, =_edata
 80023f6:	4b0c      	ldr	r3, [pc, #48]	; (8002428 <LoopFillZerobss+0x20>)
  adds  r2, r0, r1
 80023f8:	1842      	adds	r2, r0, r1
  cmp  r2, r3
 80023fa:	429a      	cmp	r2, r3
  bcc  CopyDataInit
 80023fc:	d3f6      	bcc.n	80023ec <CopyDataInit>
  ldr  r2, =_sbss
 80023fe:	4a0b      	ldr	r2, [pc, #44]	; (800242c <LoopFillZerobss+0x24>)
  b  LoopFillZerobss
 8002400:	e002      	b.n	8002408 <LoopFillZerobss>

08002402 <FillZerobss>:
/* Zero fill the bss segment. */  
FillZerobss:
  movs  r3, #0
 8002402:	2300      	movs	r3, #0
  str  r3, [r2], #4
 8002404:	f842 3b04 	str.w	r3, [r2], #4

08002408 <LoopFillZerobss>:
    
LoopFillZerobss:
  ldr  r3, = _ebss
 8002408:	4b09      	ldr	r3, [pc, #36]	; (8002430 <LoopFillZerobss+0x28>)
  cmp  r2, r3
 800240a:	429a      	cmp	r2, r3
  bcc  FillZerobss
 800240c:	d3f9      	bcc.n	8002402 <FillZerobss>

/* Call the clock system initialization function.*/
  bl  SystemInit   
 800240e:	f000 f813 	bl	8002438 <SystemInit>
/* Call static constructors */
    bl __libc_init_array
 8002412:	f000 fb77 	bl	8002b04 <__libc_init_array>
/* Call the application's entry point.*/
  bl  main
 8002416:	f7ff ff9d 	bl	8002354 <main>
  bx  lr    
 800241a:	4770      	bx	lr
  ldr   sp, =_estack      /* set stack pointer */
 800241c:	20080000 	.word	0x20080000
  ldr  r3, =_sidata
 8002420:	08002d90 	.word	0x08002d90
  ldr  r0, =_sdata
 8002424:	20020000 	.word	0x20020000
  ldr  r3, =_edata
 8002428:	200201d0 	.word	0x200201d0
  ldr  r2, =_sbss
 800242c:	200201d0 	.word	0x200201d0
  ldr  r3, = _ebss
 8002430:	20021a28 	.word	0x20021a28

08002434 <ADC_IRQHandler>:
 * @retval None       
*/
    .section  .text.Default_Handler,"ax",%progbits
Default_Handler:
Infinite_Loop:
  b  Infinite_Loop
 8002434:	e7fe      	b.n	8002434 <ADC_IRQHandler>
	...

08002438 <SystemInit>:
  *         SystemFrequency variable.
  * @param  None
  * @retval None
  */
void SystemInit(void)
{
 8002438:	b480      	push	{r7}
 800243a:	af00      	add	r7, sp, #0
  /* FPU settings ------------------------------------------------------------*/
  #if (__FPU_PRESENT == 1) && (__FPU_USED == 1)
    SCB->CPACR |= ((3UL << 10*2)|(3UL << 11*2));  /* set CP10 and CP11 Full Access */
 800243c:	4a15      	ldr	r2, [pc, #84]	; (8002494 <SystemInit+0x5c>)
 800243e:	4b15      	ldr	r3, [pc, #84]	; (8002494 <SystemInit+0x5c>)
 8002440:	f8d3 3088 	ldr.w	r3, [r3, #136]	; 0x88
 8002444:	f443 0370 	orr.w	r3, r3, #15728640	; 0xf00000
 8002448:	f8c2 3088 	str.w	r3, [r2, #136]	; 0x88
  #endif
  /* Reset the RCC clock configuration to the default reset state ------------*/
  /* Set HSION bit */
  RCC->CR |= (uint32_t)0x00000001;
 800244c:	4a12      	ldr	r2, [pc, #72]	; (8002498 <SystemInit+0x60>)
 800244e:	4b12      	ldr	r3, [pc, #72]	; (8002498 <SystemInit+0x60>)
 8002450:	681b      	ldr	r3, [r3, #0]
 8002452:	f043 0301 	orr.w	r3, r3, #1
 8002456:	6013      	str	r3, [r2, #0]

  /* Reset CFGR register */
  RCC->CFGR = 0x00000000;
 8002458:	4b0f      	ldr	r3, [pc, #60]	; (8002498 <SystemInit+0x60>)
 800245a:	2200      	movs	r2, #0
 800245c:	609a      	str	r2, [r3, #8]

  /* Reset HSEON, CSSON and PLLON bits */
  RCC->CR &= (uint32_t)0xFEF6FFFF;
 800245e:	490e      	ldr	r1, [pc, #56]	; (8002498 <SystemInit+0x60>)
 8002460:	4b0d      	ldr	r3, [pc, #52]	; (8002498 <SystemInit+0x60>)
 8002462:	681a      	ldr	r2, [r3, #0]
 8002464:	4b0d      	ldr	r3, [pc, #52]	; (800249c <SystemInit+0x64>)
 8002466:	4013      	ands	r3, r2
 8002468:	600b      	str	r3, [r1, #0]

  /* Reset PLLCFGR register */
  RCC->PLLCFGR = 0x24003010;
 800246a:	4b0b      	ldr	r3, [pc, #44]	; (8002498 <SystemInit+0x60>)
 800246c:	4a0c      	ldr	r2, [pc, #48]	; (80024a0 <SystemInit+0x68>)
 800246e:	605a      	str	r2, [r3, #4]

  /* Reset HSEBYP bit */
  RCC->CR &= (uint32_t)0xFFFBFFFF;
 8002470:	4a09      	ldr	r2, [pc, #36]	; (8002498 <SystemInit+0x60>)
 8002472:	4b09      	ldr	r3, [pc, #36]	; (8002498 <SystemInit+0x60>)
 8002474:	681b      	ldr	r3, [r3, #0]
 8002476:	f423 2380 	bic.w	r3, r3, #262144	; 0x40000
 800247a:	6013      	str	r3, [r2, #0]

  /* Disable all interrupts */
  RCC->CIR = 0x00000000;
 800247c:	4b06      	ldr	r3, [pc, #24]	; (8002498 <SystemInit+0x60>)
 800247e:	2200      	movs	r2, #0
 8002480:	60da      	str	r2, [r3, #12]

  /* Configure the Vector Table location add offset address ------------------*/
#ifdef VECT_TAB_SRAM
  SCB->VTOR = RAMDTCM_BASE | VECT_TAB_OFFSET; /* Vector Table Relocation in Internal SRAM */
#else
  SCB->VTOR = FLASH_BASE | VECT_TAB_OFFSET; /* Vector Table Relocation in Internal FLASH */
 8002482:	4b04      	ldr	r3, [pc, #16]	; (8002494 <SystemInit+0x5c>)
 8002484:	f04f 6200 	mov.w	r2, #134217728	; 0x8000000
 8002488:	609a      	str	r2, [r3, #8]
#endif
}
 800248a:	bf00      	nop
 800248c:	46bd      	mov	sp, r7
 800248e:	f85d 7b04 	ldr.w	r7, [sp], #4
 8002492:	4770      	bx	lr
 8002494:	e000ed00 	.word	0xe000ed00
 8002498:	40023800 	.word	0x40023800
 800249c:	fef6ffff 	.word	0xfef6ffff
 80024a0:	24003010 	.word	0x24003010

080024a4 <MX_USB_DEVICE_Init>:
/**
  * Init USB device Library, add supported class and start the library
  * @retval None
  */
void MX_USB_DEVICE_Init(void)
{
 80024a4:	b580      	push	{r7, lr}
 80024a6:	af00      	add	r7, sp, #0
  /* USER CODE BEGIN USB_DEVICE_Init_PreTreatment */
  
  /* USER CODE END USB_DEVICE_Init_PreTreatment */
  
  /* Init Device Library, add supported class and start the library. */
  USBD_Init(&hUsbDeviceFS, &FS_Desc, DEVICE_FS);
 80024a8:	2200      	movs	r2, #0
 80024aa:	4908      	ldr	r1, [pc, #32]	; (80024cc <MX_USB_DEVICE_Init+0x28>)
 80024ac:	4808      	ldr	r0, [pc, #32]	; (80024d0 <MX_USB_DEVICE_Init+0x2c>)
 80024ae:	f7ff fe14 	bl	80020da <USBD_Init>

  USBD_RegisterClass(&hUsbDeviceFS, &USBD_CDC);
 80024b2:	4908      	ldr	r1, [pc, #32]	; (80024d4 <MX_USB_DEVICE_Init+0x30>)
 80024b4:	4806      	ldr	r0, [pc, #24]	; (80024d0 <MX_USB_DEVICE_Init+0x2c>)
 80024b6:	f7ff fe3b 	bl	8002130 <USBD_RegisterClass>

  USBD_CDC_RegisterInterface(&hUsbDeviceFS, &USBD_Interface_fops_FS);
 80024ba:	4907      	ldr	r1, [pc, #28]	; (80024d8 <MX_USB_DEVICE_Init+0x34>)
 80024bc:	4804      	ldr	r0, [pc, #16]	; (80024d0 <MX_USB_DEVICE_Init+0x2c>)
 80024be:	f7ff fd9d 	bl	8001ffc <USBD_CDC_RegisterInterface>

  USBD_Start(&hUsbDeviceFS);
 80024c2:	4803      	ldr	r0, [pc, #12]	; (80024d0 <MX_USB_DEVICE_Init+0x2c>)
 80024c4:	f7ff fe4e 	bl	8002164 <USBD_Start>

  /* USER CODE BEGIN USB_DEVICE_Init_PostTreatment */
  
  /* USER CODE END USB_DEVICE_Init_PostTreatment */
}
 80024c8:	bf00      	nop
 80024ca:	bd80      	pop	{r7, pc}
 80024cc:	20020128 	.word	0x20020128
 80024d0:	20020200 	.word	0x20020200
 80024d4:	20020010 	.word	0x20020010
 80024d8:	20020118 	.word	0x20020118

080024dc <CDC_Init_FS>:
/**
  * @brief  Initializes the CDC media low layer over the FS USB IP
  * @retval USBD_OK if all operations are OK else USBD_FAIL
  */
static int8_t CDC_Init_FS(void)
{
 80024dc:	b580      	push	{r7, lr}
 80024de:	af00      	add	r7, sp, #0
  /* USER CODE BEGIN 3 */
  /* Set Application Buffers */
  USBD_CDC_SetTxBuffer(&hUsbDeviceFS, UserTxBufferFS, 0);
 80024e0:	2200      	movs	r2, #0
 80024e2:	4905      	ldr	r1, [pc, #20]	; (80024f8 <CDC_Init_FS+0x1c>)
 80024e4:	4805      	ldr	r0, [pc, #20]	; (80024fc <CDC_Init_FS+0x20>)
 80024e6:	f7ff fda0 	bl	800202a <USBD_CDC_SetTxBuffer>
  USBD_CDC_SetRxBuffer(&hUsbDeviceFS, UserRxBufferFS);
 80024ea:	4905      	ldr	r1, [pc, #20]	; (8002500 <CDC_Init_FS+0x24>)
 80024ec:	4803      	ldr	r0, [pc, #12]	; (80024fc <CDC_Init_FS+0x20>)
 80024ee:	f7ff fdb6 	bl	800205e <USBD_CDC_SetRxBuffer>
  return (USBD_OK);
 80024f2:	2300      	movs	r3, #0
  /* USER CODE END 3 */
}
 80024f4:	4618      	mov	r0, r3
 80024f6:	bd80      	pop	{r7, pc}
 80024f8:	20020c24 	.word	0x20020c24
 80024fc:	20020200 	.word	0x20020200
 8002500:	20020424 	.word	0x20020424

08002504 <CDC_DeInit_FS>:
/**
  * @brief  DeInitializes the CDC media low layer
  * @retval USBD_OK if all operations are OK else USBD_FAIL
  */
static int8_t CDC_DeInit_FS(void)
{
 8002504:	b480      	push	{r7}
 8002506:	af00      	add	r7, sp, #0
  /* USER CODE BEGIN 4 */
  return (USBD_OK);
 8002508:	2300      	movs	r3, #0
  /* USER CODE END 4 */
}
 800250a:	4618      	mov	r0, r3
 800250c:	46bd      	mov	sp, r7
 800250e:	f85d 7b04 	ldr.w	r7, [sp], #4
 8002512:	4770      	bx	lr

08002514 <CDC_Control_FS>:
  * @param  pbuf: Buffer containing command data (request parameters)
  * @param  length: Number of data to be sent (in bytes)
  * @retval Result of the operation: USBD_OK if all operations are OK else USBD_FAIL
  */
static int8_t CDC_Control_FS(uint8_t cmd, uint8_t* pbuf, uint16_t length)
{
 8002514:	b480      	push	{r7}
 8002516:	b083      	sub	sp, #12
 8002518:	af00      	add	r7, sp, #0
 800251a:	4603      	mov	r3, r0
 800251c:	6039      	str	r1, [r7, #0]
 800251e:	71fb      	strb	r3, [r7, #7]
 8002520:	4613      	mov	r3, r2
 8002522:	80bb      	strh	r3, [r7, #4]
  /* USER CODE BEGIN 5 */
  switch(cmd)
 8002524:	79fb      	ldrb	r3, [r7, #7]
 8002526:	2b23      	cmp	r3, #35	; 0x23
 8002528:	d84a      	bhi.n	80025c0 <CDC_Control_FS+0xac>
 800252a:	a201      	add	r2, pc, #4	; (adr r2, 8002530 <CDC_Control_FS+0x1c>)
 800252c:	f852 f023 	ldr.w	pc, [r2, r3, lsl #2]
 8002530:	080025c1 	.word	0x080025c1
 8002534:	080025c1 	.word	0x080025c1
 8002538:	080025c1 	.word	0x080025c1
 800253c:	080025c1 	.word	0x080025c1
 8002540:	080025c1 	.word	0x080025c1
 8002544:	080025c1 	.word	0x080025c1
 8002548:	080025c1 	.word	0x080025c1
 800254c:	080025c1 	.word	0x080025c1
 8002550:	080025c1 	.word	0x080025c1
 8002554:	080025c1 	.word	0x080025c1
 8002558:	080025c1 	.word	0x080025c1
 800255c:	080025c1 	.word	0x080025c1
 8002560:	080025c1 	.word	0x080025c1
 8002564:	080025c1 	.word	0x080025c1
 8002568:	080025c1 	.word	0x080025c1
 800256c:	080025c1 	.word	0x080025c1
 8002570:	080025c1 	.word	0x080025c1
 8002574:	080025c1 	.word	0x080025c1
 8002578:	080025c1 	.word	0x080025c1
 800257c:	080025c1 	.word	0x080025c1
 8002580:	080025c1 	.word	0x080025c1
 8002584:	080025c1 	.word	0x080025c1
 8002588:	080025c1 	.word	0x080025c1
 800258c:	080025c1 	.word	0x080025c1
 8002590:	080025c1 	.word	0x080025c1
 8002594:	080025c1 	.word	0x080025c1
 8002598:	080025c1 	.word	0x080025c1
 800259c:	080025c1 	.word	0x080025c1
 80025a0:	080025c1 	.word	0x080025c1
 80025a4:	080025c1 	.word	0x080025c1
 80025a8:	080025c1 	.word	0x080025c1
 80025ac:	080025c1 	.word	0x080025c1
 80025b0:	080025c1 	.word	0x080025c1
 80025b4:	080025c1 	.word	0x080025c1
 80025b8:	080025c1 	.word	0x080025c1
 80025bc:	080025c1 	.word	0x080025c1
    case CDC_SEND_BREAK:

    break;

  default:
    break;
 80025c0:	bf00      	nop
  }

  return (USBD_OK);
 80025c2:	2300      	movs	r3, #0
  /* USER CODE END 5 */
}
 80025c4:	4618      	mov	r0, r3
 80025c6:	370c      	adds	r7, #12
 80025c8:	46bd      	mov	sp, r7
 80025ca:	f85d 7b04 	ldr.w	r7, [sp], #4
 80025ce:	4770      	bx	lr

080025d0 <CDC_Receive_FS>:
  * @param  Buf: Buffer of data to be received
  * @param  Len: Number of data received (in bytes)
  * @retval Result of the operation: USBD_OK if all operations are OK else USBD_FAIL
  */
static int8_t CDC_Receive_FS(uint8_t* Buf, uint32_t *Len)
{
 80025d0:	b580      	push	{r7, lr}
 80025d2:	b082      	sub	sp, #8
 80025d4:	af00      	add	r7, sp, #0
 80025d6:	6078      	str	r0, [r7, #4]
 80025d8:	6039      	str	r1, [r7, #0]
  /* USER CODE BEGIN 6 */
  USBD_CDC_SetRxBuffer(&hUsbDeviceFS, &Buf[0]);
 80025da:	6879      	ldr	r1, [r7, #4]
 80025dc:	4805      	ldr	r0, [pc, #20]	; (80025f4 <CDC_Receive_FS+0x24>)
 80025de:	f7ff fd3e 	bl	800205e <USBD_CDC_SetRxBuffer>
  USBD_CDC_ReceivePacket(&hUsbDeviceFS);
 80025e2:	4804      	ldr	r0, [pc, #16]	; (80025f4 <CDC_Receive_FS+0x24>)
 80025e4:	f7ff fd4f 	bl	8002086 <USBD_CDC_ReceivePacket>
  return (USBD_OK);
 80025e8:	2300      	movs	r3, #0
  /* USER CODE END 6 */
}
 80025ea:	4618      	mov	r0, r3
 80025ec:	3708      	adds	r7, #8
 80025ee:	46bd      	mov	sp, r7
 80025f0:	bd80      	pop	{r7, pc}
 80025f2:	bf00      	nop
 80025f4:	20020200 	.word	0x20020200

080025f8 <HAL_PCD_MspInit>:
                       LL Driver Callbacks (PCD -> USB Device Library)
*******************************************************************************/
/* MSP Init */

void HAL_PCD_MspInit(PCD_HandleTypeDef* pcdHandle)
{
 80025f8:	b580      	push	{r7, lr}
 80025fa:	b08a      	sub	sp, #40	; 0x28
 80025fc:	af00      	add	r7, sp, #0
 80025fe:	6078      	str	r0, [r7, #4]
  GPIO_InitTypeDef GPIO_InitStruct;
  if(pcdHandle->Instance==USB_OTG_FS)
 8002600:	687b      	ldr	r3, [r7, #4]
 8002602:	681b      	ldr	r3, [r3, #0]
 8002604:	f1b3 4fa0 	cmp.w	r3, #1342177280	; 0x50000000
 8002608:	d130      	bne.n	800266c <HAL_PCD_MspInit+0x74>
  
    /**USB_OTG_FS GPIO Configuration    
    PA11     ------> USB_OTG_FS_DM
    PA12     ------> USB_OTG_FS_DP 
    */
    GPIO_InitStruct.Pin = GPIO_PIN_11|GPIO_PIN_12;
 800260a:	f44f 53c0 	mov.w	r3, #6144	; 0x1800
 800260e:	617b      	str	r3, [r7, #20]
    GPIO_InitStruct.Mode = GPIO_MODE_AF_PP;
 8002610:	2302      	movs	r3, #2
 8002612:	61bb      	str	r3, [r7, #24]
    GPIO_InitStruct.Pull = GPIO_NOPULL;
 8002614:	2300      	movs	r3, #0
 8002616:	61fb      	str	r3, [r7, #28]
    GPIO_InitStruct.Speed = GPIO_SPEED_FREQ_VERY_HIGH;
 8002618:	2303      	movs	r3, #3
 800261a:	623b      	str	r3, [r7, #32]
    GPIO_InitStruct.Alternate = GPIO_AF10_OTG_FS;
 800261c:	230a      	movs	r3, #10
 800261e:	627b      	str	r3, [r7, #36]	; 0x24
    HAL_GPIO_Init(GPIOA, &GPIO_InitStruct);
 8002620:	f107 0314 	add.w	r3, r7, #20
 8002624:	4619      	mov	r1, r3
 8002626:	4813      	ldr	r0, [pc, #76]	; (8002674 <HAL_PCD_MspInit+0x7c>)
 8002628:	f7fd ff02 	bl	8000430 <HAL_GPIO_Init>

    /* Peripheral clock enable */
    __HAL_RCC_USB_OTG_FS_CLK_ENABLE();
 800262c:	4a12      	ldr	r2, [pc, #72]	; (8002678 <HAL_PCD_MspInit+0x80>)
 800262e:	4b12      	ldr	r3, [pc, #72]	; (8002678 <HAL_PCD_MspInit+0x80>)
 8002630:	6b5b      	ldr	r3, [r3, #52]	; 0x34
 8002632:	f043 0380 	orr.w	r3, r3, #128	; 0x80
 8002636:	6353      	str	r3, [r2, #52]	; 0x34
 8002638:	4b0f      	ldr	r3, [pc, #60]	; (8002678 <HAL_PCD_MspInit+0x80>)
 800263a:	6b5b      	ldr	r3, [r3, #52]	; 0x34
 800263c:	f003 0380 	and.w	r3, r3, #128	; 0x80
 8002640:	613b      	str	r3, [r7, #16]
 8002642:	693b      	ldr	r3, [r7, #16]
 8002644:	4a0c      	ldr	r2, [pc, #48]	; (8002678 <HAL_PCD_MspInit+0x80>)
 8002646:	4b0c      	ldr	r3, [pc, #48]	; (8002678 <HAL_PCD_MspInit+0x80>)
 8002648:	6c5b      	ldr	r3, [r3, #68]	; 0x44
 800264a:	f443 4380 	orr.w	r3, r3, #16384	; 0x4000
 800264e:	6453      	str	r3, [r2, #68]	; 0x44
 8002650:	4b09      	ldr	r3, [pc, #36]	; (8002678 <HAL_PCD_MspInit+0x80>)
 8002652:	6c5b      	ldr	r3, [r3, #68]	; 0x44
 8002654:	f403 4380 	and.w	r3, r3, #16384	; 0x4000
 8002658:	60fb      	str	r3, [r7, #12]
 800265a:	68fb      	ldr	r3, [r7, #12]

    /* Peripheral interrupt init */
    HAL_NVIC_SetPriority(OTG_FS_IRQn, 0, 0);
 800265c:	2200      	movs	r2, #0
 800265e:	2100      	movs	r1, #0
 8002660:	2043      	movs	r0, #67	; 0x43
 8002662:	f7fd feae 	bl	80003c2 <HAL_NVIC_SetPriority>
    HAL_NVIC_EnableIRQ(OTG_FS_IRQn);
 8002666:	2043      	movs	r0, #67	; 0x43
 8002668:	f7fd fec7 	bl	80003fa <HAL_NVIC_EnableIRQ>
  /* USER CODE BEGIN USB_OTG_FS_MspInit 1 */

  /* USER CODE END USB_OTG_FS_MspInit 1 */
  }
}
 800266c:	bf00      	nop
 800266e:	3728      	adds	r7, #40	; 0x28
 8002670:	46bd      	mov	sp, r7
 8002672:	bd80      	pop	{r7, pc}
 8002674:	40020000 	.word	0x40020000
 8002678:	40023800 	.word	0x40023800

0800267c <USBD_LL_Init>:
  * @brief  Initializes the low level portion of the device driver.
  * @param  pdev: Device handle
  * @retval USBD status
  */
USBD_StatusTypeDef USBD_LL_Init(USBD_HandleTypeDef *pdev)
{
 800267c:	b580      	push	{r7, lr}
 800267e:	b082      	sub	sp, #8
 8002680:	af00      	add	r7, sp, #0
 8002682:	6078      	str	r0, [r7, #4]
  /* Init USB Ip. */
  if (pdev->id == DEVICE_FS) {
 8002684:	687b      	ldr	r3, [r7, #4]
 8002686:	781b      	ldrb	r3, [r3, #0]
 8002688:	2b00      	cmp	r3, #0
 800268a:	d142      	bne.n	8002712 <USBD_LL_Init+0x96>
  /* Link the driver to the stack. */
  hpcd_USB_OTG_FS.pData = pdev;
 800268c:	4a23      	ldr	r2, [pc, #140]	; (800271c <USBD_LL_Init+0xa0>)
 800268e:	687b      	ldr	r3, [r7, #4]
 8002690:	f8c2 33fc 	str.w	r3, [r2, #1020]	; 0x3fc
  pdev->pData = &hpcd_USB_OTG_FS;
 8002694:	687b      	ldr	r3, [r7, #4]
 8002696:	4a21      	ldr	r2, [pc, #132]	; (800271c <USBD_LL_Init+0xa0>)
 8002698:	f8c3 2220 	str.w	r2, [r3, #544]	; 0x220
  
  hpcd_USB_OTG_FS.Instance = USB_OTG_FS;
 800269c:	4b1f      	ldr	r3, [pc, #124]	; (800271c <USBD_LL_Init+0xa0>)
 800269e:	f04f 42a0 	mov.w	r2, #1342177280	; 0x50000000
 80026a2:	601a      	str	r2, [r3, #0]
  hpcd_USB_OTG_FS.Init.dev_endpoints = 6;
 80026a4:	4b1d      	ldr	r3, [pc, #116]	; (800271c <USBD_LL_Init+0xa0>)
 80026a6:	2206      	movs	r2, #6
 80026a8:	605a      	str	r2, [r3, #4]
  hpcd_USB_OTG_FS.Init.speed = PCD_SPEED_FULL;
 80026aa:	4b1c      	ldr	r3, [pc, #112]	; (800271c <USBD_LL_Init+0xa0>)
 80026ac:	2202      	movs	r2, #2
 80026ae:	60da      	str	r2, [r3, #12]
  hpcd_USB_OTG_FS.Init.dma_enable = DISABLE;
 80026b0:	4b1a      	ldr	r3, [pc, #104]	; (800271c <USBD_LL_Init+0xa0>)
 80026b2:	2200      	movs	r2, #0
 80026b4:	611a      	str	r2, [r3, #16]
  hpcd_USB_OTG_FS.Init.ep0_mps = DEP0CTL_MPS_64;
 80026b6:	4b19      	ldr	r3, [pc, #100]	; (800271c <USBD_LL_Init+0xa0>)
 80026b8:	2200      	movs	r2, #0
 80026ba:	615a      	str	r2, [r3, #20]
  hpcd_USB_OTG_FS.Init.phy_itface = PCD_PHY_EMBEDDED;
 80026bc:	4b17      	ldr	r3, [pc, #92]	; (800271c <USBD_LL_Init+0xa0>)
 80026be:	2202      	movs	r2, #2
 80026c0:	619a      	str	r2, [r3, #24]
  hpcd_USB_OTG_FS.Init.Sof_enable = DISABLE;
 80026c2:	4b16      	ldr	r3, [pc, #88]	; (800271c <USBD_LL_Init+0xa0>)
 80026c4:	2200      	movs	r2, #0
 80026c6:	61da      	str	r2, [r3, #28]
  hpcd_USB_OTG_FS.Init.low_power_enable = DISABLE;
 80026c8:	4b14      	ldr	r3, [pc, #80]	; (800271c <USBD_LL_Init+0xa0>)
 80026ca:	2200      	movs	r2, #0
 80026cc:	621a      	str	r2, [r3, #32]
  hpcd_USB_OTG_FS.Init.lpm_enable = DISABLE;
 80026ce:	4b13      	ldr	r3, [pc, #76]	; (800271c <USBD_LL_Init+0xa0>)
 80026d0:	2200      	movs	r2, #0
 80026d2:	625a      	str	r2, [r3, #36]	; 0x24
  hpcd_USB_OTG_FS.Init.vbus_sensing_enable = DISABLE;
 80026d4:	4b11      	ldr	r3, [pc, #68]	; (800271c <USBD_LL_Init+0xa0>)
 80026d6:	2200      	movs	r2, #0
 80026d8:	62da      	str	r2, [r3, #44]	; 0x2c
  hpcd_USB_OTG_FS.Init.use_dedicated_ep1 = DISABLE;
 80026da:	4b10      	ldr	r3, [pc, #64]	; (800271c <USBD_LL_Init+0xa0>)
 80026dc:	2200      	movs	r2, #0
 80026de:	631a      	str	r2, [r3, #48]	; 0x30
  if (HAL_PCD_Init(&hpcd_USB_OTG_FS) != HAL_OK)
 80026e0:	480e      	ldr	r0, [pc, #56]	; (800271c <USBD_LL_Init+0xa0>)
 80026e2:	f7fe f84f 	bl	8000784 <HAL_PCD_Init>
 80026e6:	4603      	mov	r3, r0
 80026e8:	2b00      	cmp	r3, #0
 80026ea:	d004      	beq.n	80026f6 <USBD_LL_Init+0x7a>
  {
    _Error_Handler(__FILE__, __LINE__);
 80026ec:	f44f 71a6 	mov.w	r1, #332	; 0x14c
 80026f0:	480b      	ldr	r0, [pc, #44]	; (8002720 <USBD_LL_Init+0xa4>)
 80026f2:	f7ff fe71 	bl	80023d8 <_Error_Handler>
  }

  HAL_PCDEx_SetRxFiFo(&hpcd_USB_OTG_FS, 0x80);
 80026f6:	2180      	movs	r1, #128	; 0x80
 80026f8:	4808      	ldr	r0, [pc, #32]	; (800271c <USBD_LL_Init+0xa0>)
 80026fa:	f7fe fb1c 	bl	8000d36 <HAL_PCDEx_SetRxFiFo>
  HAL_PCDEx_SetTxFiFo(&hpcd_USB_OTG_FS, 0, 0x40);
 80026fe:	2240      	movs	r2, #64	; 0x40
 8002700:	2100      	movs	r1, #0
 8002702:	4806      	ldr	r0, [pc, #24]	; (800271c <USBD_LL_Init+0xa0>)
 8002704:	f7fe facc 	bl	8000ca0 <HAL_PCDEx_SetTxFiFo>
  HAL_PCDEx_SetTxFiFo(&hpcd_USB_OTG_FS, 1, 0x80);
 8002708:	2280      	movs	r2, #128	; 0x80
 800270a:	2101      	movs	r1, #1
 800270c:	4803      	ldr	r0, [pc, #12]	; (800271c <USBD_LL_Init+0xa0>)
 800270e:	f7fe fac7 	bl	8000ca0 <HAL_PCDEx_SetTxFiFo>
  }
  return USBD_OK;
 8002712:	2300      	movs	r3, #0
}
 8002714:	4618      	mov	r0, r3
 8002716:	3708      	adds	r7, #8
 8002718:	46bd      	mov	sp, r7
 800271a:	bd80      	pop	{r7, pc}
 800271c:	20021424 	.word	0x20021424
 8002720:	08002d1c 	.word	0x08002d1c

08002724 <USBD_LL_Start>:
  * @brief  Starts the low level portion of the device driver.
  * @param  pdev: Device handle
  * @retval USBD status
  */
USBD_StatusTypeDef USBD_LL_Start(USBD_HandleTypeDef *pdev)
{
 8002724:	b580      	push	{r7, lr}
 8002726:	b084      	sub	sp, #16
 8002728:	af00      	add	r7, sp, #0
 800272a:	6078      	str	r0, [r7, #4]
  HAL_StatusTypeDef hal_status = HAL_OK;
 800272c:	2300      	movs	r3, #0
 800272e:	73bb      	strb	r3, [r7, #14]
  USBD_StatusTypeDef usb_status = USBD_OK;
 8002730:	2300      	movs	r3, #0
 8002732:	73fb      	strb	r3, [r7, #15]
 
  hal_status = HAL_PCD_Start(pdev->pData);
 8002734:	687b      	ldr	r3, [r7, #4]
 8002736:	f8d3 3220 	ldr.w	r3, [r3, #544]	; 0x220
 800273a:	4618      	mov	r0, r3
 800273c:	f7fe f930 	bl	80009a0 <HAL_PCD_Start>
 8002740:	4603      	mov	r3, r0
 8002742:	73bb      	strb	r3, [r7, #14]
     
  switch (hal_status) {
 8002744:	7bbb      	ldrb	r3, [r7, #14]
 8002746:	2b03      	cmp	r3, #3
 8002748:	d816      	bhi.n	8002778 <USBD_LL_Start+0x54>
 800274a:	a201      	add	r2, pc, #4	; (adr r2, 8002750 <USBD_LL_Start+0x2c>)
 800274c:	f852 f023 	ldr.w	pc, [r2, r3, lsl #2]
 8002750:	08002761 	.word	0x08002761
 8002754:	08002767 	.word	0x08002767
 8002758:	0800276d 	.word	0x0800276d
 800275c:	08002773 	.word	0x08002773
    case HAL_OK :
      usb_status = USBD_OK;
 8002760:	2300      	movs	r3, #0
 8002762:	73fb      	strb	r3, [r7, #15]
    break;
 8002764:	e00b      	b.n	800277e <USBD_LL_Start+0x5a>
    case HAL_ERROR :
      usb_status = USBD_FAIL;
 8002766:	2302      	movs	r3, #2
 8002768:	73fb      	strb	r3, [r7, #15]
    break;
 800276a:	e008      	b.n	800277e <USBD_LL_Start+0x5a>
    case HAL_BUSY :
      usb_status = USBD_BUSY;
 800276c:	2301      	movs	r3, #1
 800276e:	73fb      	strb	r3, [r7, #15]
    break;
 8002770:	e005      	b.n	800277e <USBD_LL_Start+0x5a>
    case HAL_TIMEOUT :
      usb_status = USBD_FAIL;
 8002772:	2302      	movs	r3, #2
 8002774:	73fb      	strb	r3, [r7, #15]
    break;
 8002776:	e002      	b.n	800277e <USBD_LL_Start+0x5a>
    default :
      usb_status = USBD_FAIL;
 8002778:	2302      	movs	r3, #2
 800277a:	73fb      	strb	r3, [r7, #15]
    break;
 800277c:	bf00      	nop
  }
  return usb_status;
 800277e:	7bfb      	ldrb	r3, [r7, #15]
}
 8002780:	4618      	mov	r0, r3
 8002782:	3710      	adds	r7, #16
 8002784:	46bd      	mov	sp, r7
 8002786:	bd80      	pop	{r7, pc}

08002788 <USBD_LL_OpenEP>:
  * @param  ep_type: Endpoint type
  * @param  ep_mps: Endpoint max packet size
  * @retval USBD status
  */
USBD_StatusTypeDef USBD_LL_OpenEP(USBD_HandleTypeDef *pdev, uint8_t ep_addr, uint8_t ep_type, uint16_t ep_mps)
{
 8002788:	b580      	push	{r7, lr}
 800278a:	b084      	sub	sp, #16
 800278c:	af00      	add	r7, sp, #0
 800278e:	6078      	str	r0, [r7, #4]
 8002790:	4608      	mov	r0, r1
 8002792:	4611      	mov	r1, r2
 8002794:	461a      	mov	r2, r3
 8002796:	4603      	mov	r3, r0
 8002798:	70fb      	strb	r3, [r7, #3]
 800279a:	460b      	mov	r3, r1
 800279c:	70bb      	strb	r3, [r7, #2]
 800279e:	4613      	mov	r3, r2
 80027a0:	803b      	strh	r3, [r7, #0]
  HAL_StatusTypeDef hal_status = HAL_OK;
 80027a2:	2300      	movs	r3, #0
 80027a4:	73bb      	strb	r3, [r7, #14]
  USBD_StatusTypeDef usb_status = USBD_OK;
 80027a6:	2300      	movs	r3, #0
 80027a8:	73fb      	strb	r3, [r7, #15]

  hal_status = HAL_PCD_EP_Open(pdev->pData, ep_addr, ep_mps, ep_type);
 80027aa:	687b      	ldr	r3, [r7, #4]
 80027ac:	f8d3 0220 	ldr.w	r0, [r3, #544]	; 0x220
 80027b0:	78bb      	ldrb	r3, [r7, #2]
 80027b2:	883a      	ldrh	r2, [r7, #0]
 80027b4:	78f9      	ldrb	r1, [r7, #3]
 80027b6:	f7fe f915 	bl	80009e4 <HAL_PCD_EP_Open>
 80027ba:	4603      	mov	r3, r0
 80027bc:	73bb      	strb	r3, [r7, #14]

  switch (hal_status) {
 80027be:	7bbb      	ldrb	r3, [r7, #14]
 80027c0:	2b03      	cmp	r3, #3
 80027c2:	d817      	bhi.n	80027f4 <USBD_LL_OpenEP+0x6c>
 80027c4:	a201      	add	r2, pc, #4	; (adr r2, 80027cc <USBD_LL_OpenEP+0x44>)
 80027c6:	f852 f023 	ldr.w	pc, [r2, r3, lsl #2]
 80027ca:	bf00      	nop
 80027cc:	080027dd 	.word	0x080027dd
 80027d0:	080027e3 	.word	0x080027e3
 80027d4:	080027e9 	.word	0x080027e9
 80027d8:	080027ef 	.word	0x080027ef
    case HAL_OK :
      usb_status = USBD_OK;
 80027dc:	2300      	movs	r3, #0
 80027de:	73fb      	strb	r3, [r7, #15]
    break;
 80027e0:	e00b      	b.n	80027fa <USBD_LL_OpenEP+0x72>
    case HAL_ERROR :
      usb_status = USBD_FAIL;
 80027e2:	2302      	movs	r3, #2
 80027e4:	73fb      	strb	r3, [r7, #15]
    break;
 80027e6:	e008      	b.n	80027fa <USBD_LL_OpenEP+0x72>
    case HAL_BUSY :
      usb_status = USBD_BUSY;
 80027e8:	2301      	movs	r3, #1
 80027ea:	73fb      	strb	r3, [r7, #15]
    break;
 80027ec:	e005      	b.n	80027fa <USBD_LL_OpenEP+0x72>
    case HAL_TIMEOUT :
      usb_status = USBD_FAIL;
 80027ee:	2302      	movs	r3, #2
 80027f0:	73fb      	strb	r3, [r7, #15]
    break;
 80027f2:	e002      	b.n	80027fa <USBD_LL_OpenEP+0x72>
    default :
      usb_status = USBD_FAIL;
 80027f4:	2302      	movs	r3, #2
 80027f6:	73fb      	strb	r3, [r7, #15]
    break;
 80027f8:	bf00      	nop
  }
  return usb_status;
 80027fa:	7bfb      	ldrb	r3, [r7, #15]
}
 80027fc:	4618      	mov	r0, r3
 80027fe:	3710      	adds	r7, #16
 8002800:	46bd      	mov	sp, r7
 8002802:	bd80      	pop	{r7, pc}

08002804 <USBD_LL_CloseEP>:
  * @param  pdev: Device handle
  * @param  ep_addr: Endpoint number
  * @retval USBD status
  */
USBD_StatusTypeDef USBD_LL_CloseEP(USBD_HandleTypeDef *pdev, uint8_t ep_addr)
{
 8002804:	b580      	push	{r7, lr}
 8002806:	b084      	sub	sp, #16
 8002808:	af00      	add	r7, sp, #0
 800280a:	6078      	str	r0, [r7, #4]
 800280c:	460b      	mov	r3, r1
 800280e:	70fb      	strb	r3, [r7, #3]
  HAL_StatusTypeDef hal_status = HAL_OK;
 8002810:	2300      	movs	r3, #0
 8002812:	73bb      	strb	r3, [r7, #14]
  USBD_StatusTypeDef usb_status = USBD_OK;
 8002814:	2300      	movs	r3, #0
 8002816:	73fb      	strb	r3, [r7, #15]
  
  hal_status = HAL_PCD_EP_Close(pdev->pData, ep_addr);
 8002818:	687b      	ldr	r3, [r7, #4]
 800281a:	f8d3 3220 	ldr.w	r3, [r3, #544]	; 0x220
 800281e:	78fa      	ldrb	r2, [r7, #3]
 8002820:	4611      	mov	r1, r2
 8002822:	4618      	mov	r0, r3
 8002824:	f7fe f946 	bl	8000ab4 <HAL_PCD_EP_Close>
 8002828:	4603      	mov	r3, r0
 800282a:	73bb      	strb	r3, [r7, #14]
      
  switch (hal_status) {
 800282c:	7bbb      	ldrb	r3, [r7, #14]
 800282e:	2b03      	cmp	r3, #3
 8002830:	d816      	bhi.n	8002860 <USBD_LL_CloseEP+0x5c>
 8002832:	a201      	add	r2, pc, #4	; (adr r2, 8002838 <USBD_LL_CloseEP+0x34>)
 8002834:	f852 f023 	ldr.w	pc, [r2, r3, lsl #2]
 8002838:	08002849 	.word	0x08002849
 800283c:	0800284f 	.word	0x0800284f
 8002840:	08002855 	.word	0x08002855
 8002844:	0800285b 	.word	0x0800285b
    case HAL_OK :
      usb_status = USBD_OK;
 8002848:	2300      	movs	r3, #0
 800284a:	73fb      	strb	r3, [r7, #15]
    break;
 800284c:	e00b      	b.n	8002866 <USBD_LL_CloseEP+0x62>
    case HAL_ERROR :
      usb_status = USBD_FAIL;
 800284e:	2302      	movs	r3, #2
 8002850:	73fb      	strb	r3, [r7, #15]
    break;
 8002852:	e008      	b.n	8002866 <USBD_LL_CloseEP+0x62>
    case HAL_BUSY :
      usb_status = USBD_BUSY;
 8002854:	2301      	movs	r3, #1
 8002856:	73fb      	strb	r3, [r7, #15]
    break;
 8002858:	e005      	b.n	8002866 <USBD_LL_CloseEP+0x62>
    case HAL_TIMEOUT :
      usb_status = USBD_FAIL;
 800285a:	2302      	movs	r3, #2
 800285c:	73fb      	strb	r3, [r7, #15]
    break;
 800285e:	e002      	b.n	8002866 <USBD_LL_CloseEP+0x62>
    default :
      usb_status = USBD_FAIL;
 8002860:	2302      	movs	r3, #2
 8002862:	73fb      	strb	r3, [r7, #15]
    break;
 8002864:	bf00      	nop
  }
  return usb_status;  
 8002866:	7bfb      	ldrb	r3, [r7, #15]
}
 8002868:	4618      	mov	r0, r3
 800286a:	3710      	adds	r7, #16
 800286c:	46bd      	mov	sp, r7
 800286e:	bd80      	pop	{r7, pc}

08002870 <USBD_LL_Transmit>:
  * @param  pbuf: Pointer to data to be sent
  * @param  size: Data size    
  * @retval USBD status
  */
USBD_StatusTypeDef USBD_LL_Transmit(USBD_HandleTypeDef *pdev, uint8_t ep_addr, uint8_t *pbuf, uint16_t size)
{
 8002870:	b580      	push	{r7, lr}
 8002872:	b086      	sub	sp, #24
 8002874:	af00      	add	r7, sp, #0
 8002876:	60f8      	str	r0, [r7, #12]
 8002878:	607a      	str	r2, [r7, #4]
 800287a:	461a      	mov	r2, r3
 800287c:	460b      	mov	r3, r1
 800287e:	72fb      	strb	r3, [r7, #11]
 8002880:	4613      	mov	r3, r2
 8002882:	813b      	strh	r3, [r7, #8]
  HAL_StatusTypeDef hal_status = HAL_OK;
 8002884:	2300      	movs	r3, #0
 8002886:	75bb      	strb	r3, [r7, #22]
  USBD_StatusTypeDef usb_status = USBD_OK;
 8002888:	2300      	movs	r3, #0
 800288a:	75fb      	strb	r3, [r7, #23]

  hal_status = HAL_PCD_EP_Transmit(pdev->pData, ep_addr, pbuf, size);
 800288c:	68fb      	ldr	r3, [r7, #12]
 800288e:	f8d3 0220 	ldr.w	r0, [r3, #544]	; 0x220
 8002892:	893b      	ldrh	r3, [r7, #8]
 8002894:	7af9      	ldrb	r1, [r7, #11]
 8002896:	687a      	ldr	r2, [r7, #4]
 8002898:	f7fe f9b9 	bl	8000c0e <HAL_PCD_EP_Transmit>
 800289c:	4603      	mov	r3, r0
 800289e:	75bb      	strb	r3, [r7, #22]
     
  switch (hal_status) {
 80028a0:	7dbb      	ldrb	r3, [r7, #22]
 80028a2:	2b03      	cmp	r3, #3
 80028a4:	d816      	bhi.n	80028d4 <USBD_LL_Transmit+0x64>
 80028a6:	a201      	add	r2, pc, #4	; (adr r2, 80028ac <USBD_LL_Transmit+0x3c>)
 80028a8:	f852 f023 	ldr.w	pc, [r2, r3, lsl #2]
 80028ac:	080028bd 	.word	0x080028bd
 80028b0:	080028c3 	.word	0x080028c3
 80028b4:	080028c9 	.word	0x080028c9
 80028b8:	080028cf 	.word	0x080028cf
    case HAL_OK :
      usb_status = USBD_OK;
 80028bc:	2300      	movs	r3, #0
 80028be:	75fb      	strb	r3, [r7, #23]
    break;
 80028c0:	e00b      	b.n	80028da <USBD_LL_Transmit+0x6a>
    case HAL_ERROR :
      usb_status = USBD_FAIL;
 80028c2:	2302      	movs	r3, #2
 80028c4:	75fb      	strb	r3, [r7, #23]
    break;
 80028c6:	e008      	b.n	80028da <USBD_LL_Transmit+0x6a>
    case HAL_BUSY :
      usb_status = USBD_BUSY;
 80028c8:	2301      	movs	r3, #1
 80028ca:	75fb      	strb	r3, [r7, #23]
    break;
 80028cc:	e005      	b.n	80028da <USBD_LL_Transmit+0x6a>
    case HAL_TIMEOUT :
      usb_status = USBD_FAIL;
 80028ce:	2302      	movs	r3, #2
 80028d0:	75fb      	strb	r3, [r7, #23]
    break;
 80028d2:	e002      	b.n	80028da <USBD_LL_Transmit+0x6a>
    default :
      usb_status = USBD_FAIL;
 80028d4:	2302      	movs	r3, #2
 80028d6:	75fb      	strb	r3, [r7, #23]
    break;
 80028d8:	bf00      	nop
  }
  return usb_status;    
 80028da:	7dfb      	ldrb	r3, [r7, #23]
}
 80028dc:	4618      	mov	r0, r3
 80028de:	3718      	adds	r7, #24
 80028e0:	46bd      	mov	sp, r7
 80028e2:	bd80      	pop	{r7, pc}

080028e4 <USBD_LL_PrepareReceive>:
  * @param  pbuf: Pointer to data to be received
  * @param  size: Data size
  * @retval USBD status
  */
USBD_StatusTypeDef USBD_LL_PrepareReceive(USBD_HandleTypeDef *pdev, uint8_t ep_addr, uint8_t *pbuf, uint16_t size)
{
 80028e4:	b580      	push	{r7, lr}
 80028e6:	b086      	sub	sp, #24
 80028e8:	af00      	add	r7, sp, #0
 80028ea:	60f8      	str	r0, [r7, #12]
 80028ec:	607a      	str	r2, [r7, #4]
 80028ee:	461a      	mov	r2, r3
 80028f0:	460b      	mov	r3, r1
 80028f2:	72fb      	strb	r3, [r7, #11]
 80028f4:	4613      	mov	r3, r2
 80028f6:	813b      	strh	r3, [r7, #8]
  HAL_StatusTypeDef hal_status = HAL_OK;
 80028f8:	2300      	movs	r3, #0
 80028fa:	75bb      	strb	r3, [r7, #22]
  USBD_StatusTypeDef usb_status = USBD_OK;
 80028fc:	2300      	movs	r3, #0
 80028fe:	75fb      	strb	r3, [r7, #23]

  hal_status = HAL_PCD_EP_Receive(pdev->pData, ep_addr, pbuf, size);
 8002900:	68fb      	ldr	r3, [r7, #12]
 8002902:	f8d3 0220 	ldr.w	r0, [r3, #544]	; 0x220
 8002906:	893b      	ldrh	r3, [r7, #8]
 8002908:	7af9      	ldrb	r1, [r7, #11]
 800290a:	687a      	ldr	r2, [r7, #4]
 800290c:	f7fe f91c 	bl	8000b48 <HAL_PCD_EP_Receive>
 8002910:	4603      	mov	r3, r0
 8002912:	75bb      	strb	r3, [r7, #22]
     
  switch (hal_status) {
 8002914:	7dbb      	ldrb	r3, [r7, #22]
 8002916:	2b03      	cmp	r3, #3
 8002918:	d816      	bhi.n	8002948 <USBD_LL_PrepareReceive+0x64>
 800291a:	a201      	add	r2, pc, #4	; (adr r2, 8002920 <USBD_LL_PrepareReceive+0x3c>)
 800291c:	f852 f023 	ldr.w	pc, [r2, r3, lsl #2]
 8002920:	08002931 	.word	0x08002931
 8002924:	08002937 	.word	0x08002937
 8002928:	0800293d 	.word	0x0800293d
 800292c:	08002943 	.word	0x08002943
    case HAL_OK :
      usb_status = USBD_OK;
 8002930:	2300      	movs	r3, #0
 8002932:	75fb      	strb	r3, [r7, #23]
    break;
 8002934:	e00b      	b.n	800294e <USBD_LL_PrepareReceive+0x6a>
    case HAL_ERROR :
      usb_status = USBD_FAIL;
 8002936:	2302      	movs	r3, #2
 8002938:	75fb      	strb	r3, [r7, #23]
    break;
 800293a:	e008      	b.n	800294e <USBD_LL_PrepareReceive+0x6a>
    case HAL_BUSY :
      usb_status = USBD_BUSY;
 800293c:	2301      	movs	r3, #1
 800293e:	75fb      	strb	r3, [r7, #23]
    break;
 8002940:	e005      	b.n	800294e <USBD_LL_PrepareReceive+0x6a>
    case HAL_TIMEOUT :
      usb_status = USBD_FAIL;
 8002942:	2302      	movs	r3, #2
 8002944:	75fb      	strb	r3, [r7, #23]
    break;
 8002946:	e002      	b.n	800294e <USBD_LL_PrepareReceive+0x6a>
    default :
      usb_status = USBD_FAIL;
 8002948:	2302      	movs	r3, #2
 800294a:	75fb      	strb	r3, [r7, #23]
    break;
 800294c:	bf00      	nop
  }
  return usb_status; 
 800294e:	7dfb      	ldrb	r3, [r7, #23]
}
 8002950:	4618      	mov	r0, r3
 8002952:	3718      	adds	r7, #24
 8002954:	46bd      	mov	sp, r7
 8002956:	bd80      	pop	{r7, pc}

08002958 <USBD_LL_GetRxDataSize>:
  * @param  pdev: Device handle
  * @param  ep_addr: Endpoint number
  * @retval Recived Data Size
  */
uint32_t USBD_LL_GetRxDataSize(USBD_HandleTypeDef *pdev, uint8_t ep_addr)
{
 8002958:	b580      	push	{r7, lr}
 800295a:	b082      	sub	sp, #8
 800295c:	af00      	add	r7, sp, #0
 800295e:	6078      	str	r0, [r7, #4]
 8002960:	460b      	mov	r3, r1
 8002962:	70fb      	strb	r3, [r7, #3]
  return HAL_PCD_EP_GetRxCount((PCD_HandleTypeDef*) pdev->pData, ep_addr);
 8002964:	687b      	ldr	r3, [r7, #4]
 8002966:	f8d3 3220 	ldr.w	r3, [r3, #544]	; 0x220
 800296a:	78fa      	ldrb	r2, [r7, #3]
 800296c:	4611      	mov	r1, r2
 800296e:	4618      	mov	r0, r3
 8002970:	f7fe f934 	bl	8000bdc <HAL_PCD_EP_GetRxCount>
 8002974:	4603      	mov	r3, r0
}
 8002976:	4618      	mov	r0, r3
 8002978:	3708      	adds	r7, #8
 800297a:	46bd      	mov	sp, r7
 800297c:	bd80      	pop	{r7, pc}
	...

08002980 <USBD_FS_DeviceDescriptor>:
  * @param  speed : Current device speed
  * @param  length : Pointer to data length variable
  * @retval Pointer to descriptor buffer
  */
uint8_t * USBD_FS_DeviceDescriptor(USBD_SpeedTypeDef speed, uint16_t *length)
{
 8002980:	b480      	push	{r7}
 8002982:	b083      	sub	sp, #12
 8002984:	af00      	add	r7, sp, #0
 8002986:	4603      	mov	r3, r0
 8002988:	6039      	str	r1, [r7, #0]
 800298a:	71fb      	strb	r3, [r7, #7]
  *length = sizeof(USBD_FS_DeviceDesc);
 800298c:	683b      	ldr	r3, [r7, #0]
 800298e:	2212      	movs	r2, #18
 8002990:	801a      	strh	r2, [r3, #0]
  return USBD_FS_DeviceDesc;
 8002992:	4b03      	ldr	r3, [pc, #12]	; (80029a0 <USBD_FS_DeviceDescriptor+0x20>)
}
 8002994:	4618      	mov	r0, r3
 8002996:	370c      	adds	r7, #12
 8002998:	46bd      	mov	sp, r7
 800299a:	f85d 7b04 	ldr.w	r7, [sp], #4
 800299e:	4770      	bx	lr
 80029a0:	20020148 	.word	0x20020148

080029a4 <USBD_FS_LangIDStrDescriptor>:
  * @param  speed : Current device speed
  * @param  length : Pointer to data length variable
  * @retval Pointer to descriptor buffer
  */
uint8_t * USBD_FS_LangIDStrDescriptor(USBD_SpeedTypeDef speed, uint16_t *length)
{
 80029a4:	b480      	push	{r7}
 80029a6:	b083      	sub	sp, #12
 80029a8:	af00      	add	r7, sp, #0
 80029aa:	4603      	mov	r3, r0
 80029ac:	6039      	str	r1, [r7, #0]
 80029ae:	71fb      	strb	r3, [r7, #7]
  *length = sizeof(USBD_LangIDDesc);
 80029b0:	683b      	ldr	r3, [r7, #0]
 80029b2:	2204      	movs	r2, #4
 80029b4:	801a      	strh	r2, [r3, #0]
  return USBD_LangIDDesc;
 80029b6:	4b03      	ldr	r3, [pc, #12]	; (80029c4 <USBD_FS_LangIDStrDescriptor+0x20>)
}
 80029b8:	4618      	mov	r0, r3
 80029ba:	370c      	adds	r7, #12
 80029bc:	46bd      	mov	sp, r7
 80029be:	f85d 7b04 	ldr.w	r7, [sp], #4
 80029c2:	4770      	bx	lr
 80029c4:	20020168 	.word	0x20020168

080029c8 <USBD_FS_ProductStrDescriptor>:
  * @param  speed : Current device speed
  * @param  length : Pointer to data length variable
  * @retval Pointer to descriptor buffer
  */
uint8_t * USBD_FS_ProductStrDescriptor(USBD_SpeedTypeDef speed, uint16_t *length)
{
 80029c8:	b580      	push	{r7, lr}
 80029ca:	b082      	sub	sp, #8
 80029cc:	af00      	add	r7, sp, #0
 80029ce:	4603      	mov	r3, r0
 80029d0:	6039      	str	r1, [r7, #0]
 80029d2:	71fb      	strb	r3, [r7, #7]
  if(speed == 0)
 80029d4:	79fb      	ldrb	r3, [r7, #7]
 80029d6:	2b00      	cmp	r3, #0
 80029d8:	d105      	bne.n	80029e6 <USBD_FS_ProductStrDescriptor+0x1e>
  {
    USBD_GetString((uint8_t *)USBD_PRODUCT_STRING_FS, USBD_StrDesc, length);
 80029da:	683a      	ldr	r2, [r7, #0]
 80029dc:	4907      	ldr	r1, [pc, #28]	; (80029fc <USBD_FS_ProductStrDescriptor+0x34>)
 80029de:	4808      	ldr	r0, [pc, #32]	; (8002a00 <USBD_FS_ProductStrDescriptor+0x38>)
 80029e0:	f7ff fbcc 	bl	800217c <USBD_GetString>
 80029e4:	e004      	b.n	80029f0 <USBD_FS_ProductStrDescriptor+0x28>
  }
  else
  {
    USBD_GetString((uint8_t *)USBD_PRODUCT_STRING_FS, USBD_StrDesc, length);
 80029e6:	683a      	ldr	r2, [r7, #0]
 80029e8:	4904      	ldr	r1, [pc, #16]	; (80029fc <USBD_FS_ProductStrDescriptor+0x34>)
 80029ea:	4805      	ldr	r0, [pc, #20]	; (8002a00 <USBD_FS_ProductStrDescriptor+0x38>)
 80029ec:	f7ff fbc6 	bl	800217c <USBD_GetString>
  }
  return USBD_StrDesc;
 80029f0:	4b02      	ldr	r3, [pc, #8]	; (80029fc <USBD_FS_ProductStrDescriptor+0x34>)
}
 80029f2:	4618      	mov	r0, r3
 80029f4:	3708      	adds	r7, #8
 80029f6:	46bd      	mov	sp, r7
 80029f8:	bd80      	pop	{r7, pc}
 80029fa:	bf00      	nop
 80029fc:	20021824 	.word	0x20021824
 8002a00:	08002d30 	.word	0x08002d30

08002a04 <USBD_FS_ManufacturerStrDescriptor>:
  * @param  speed : Current device speed
  * @param  length : Pointer to data length variable
  * @retval Pointer to descriptor buffer
  */
uint8_t * USBD_FS_ManufacturerStrDescriptor(USBD_SpeedTypeDef speed, uint16_t *length)
{
 8002a04:	b580      	push	{r7, lr}
 8002a06:	b082      	sub	sp, #8
 8002a08:	af00      	add	r7, sp, #0
 8002a0a:	4603      	mov	r3, r0
 8002a0c:	6039      	str	r1, [r7, #0]
 8002a0e:	71fb      	strb	r3, [r7, #7]
  USBD_GetString((uint8_t *)USBD_MANUFACTURER_STRING, USBD_StrDesc, length);
 8002a10:	683a      	ldr	r2, [r7, #0]
 8002a12:	4904      	ldr	r1, [pc, #16]	; (8002a24 <USBD_FS_ManufacturerStrDescriptor+0x20>)
 8002a14:	4804      	ldr	r0, [pc, #16]	; (8002a28 <USBD_FS_ManufacturerStrDescriptor+0x24>)
 8002a16:	f7ff fbb1 	bl	800217c <USBD_GetString>
  return USBD_StrDesc;
 8002a1a:	4b02      	ldr	r3, [pc, #8]	; (8002a24 <USBD_FS_ManufacturerStrDescriptor+0x20>)
}
 8002a1c:	4618      	mov	r0, r3
 8002a1e:	3708      	adds	r7, #8
 8002a20:	46bd      	mov	sp, r7
 8002a22:	bd80      	pop	{r7, pc}
 8002a24:	20021824 	.word	0x20021824
 8002a28:	08002d48 	.word	0x08002d48

08002a2c <USBD_FS_SerialStrDescriptor>:
  * @param  speed : Current device speed
  * @param  length : Pointer to data length variable
  * @retval Pointer to descriptor buffer
  */
uint8_t * USBD_FS_SerialStrDescriptor(USBD_SpeedTypeDef speed, uint16_t *length)
{
 8002a2c:	b580      	push	{r7, lr}
 8002a2e:	b082      	sub	sp, #8
 8002a30:	af00      	add	r7, sp, #0
 8002a32:	4603      	mov	r3, r0
 8002a34:	6039      	str	r1, [r7, #0]
 8002a36:	71fb      	strb	r3, [r7, #7]
  if(speed == USBD_SPEED_HIGH)
 8002a38:	79fb      	ldrb	r3, [r7, #7]
 8002a3a:	2b00      	cmp	r3, #0
 8002a3c:	d105      	bne.n	8002a4a <USBD_FS_SerialStrDescriptor+0x1e>
  {
    USBD_GetString((uint8_t *)USBD_SERIALNUMBER_STRING_FS, USBD_StrDesc, length);
 8002a3e:	683a      	ldr	r2, [r7, #0]
 8002a40:	4907      	ldr	r1, [pc, #28]	; (8002a60 <USBD_FS_SerialStrDescriptor+0x34>)
 8002a42:	4808      	ldr	r0, [pc, #32]	; (8002a64 <USBD_FS_SerialStrDescriptor+0x38>)
 8002a44:	f7ff fb9a 	bl	800217c <USBD_GetString>
 8002a48:	e004      	b.n	8002a54 <USBD_FS_SerialStrDescriptor+0x28>
  }
  else
  {
    USBD_GetString((uint8_t *)USBD_SERIALNUMBER_STRING_FS, USBD_StrDesc, length);
 8002a4a:	683a      	ldr	r2, [r7, #0]
 8002a4c:	4904      	ldr	r1, [pc, #16]	; (8002a60 <USBD_FS_SerialStrDescriptor+0x34>)
 8002a4e:	4805      	ldr	r0, [pc, #20]	; (8002a64 <USBD_FS_SerialStrDescriptor+0x38>)
 8002a50:	f7ff fb94 	bl	800217c <USBD_GetString>
  }
  return USBD_StrDesc;
 8002a54:	4b02      	ldr	r3, [pc, #8]	; (8002a60 <USBD_FS_SerialStrDescriptor+0x34>)
}
 8002a56:	4618      	mov	r0, r3
 8002a58:	3708      	adds	r7, #8
 8002a5a:	46bd      	mov	sp, r7
 8002a5c:	bd80      	pop	{r7, pc}
 8002a5e:	bf00      	nop
 8002a60:	20021824 	.word	0x20021824
 8002a64:	08002d5c 	.word	0x08002d5c

08002a68 <USBD_FS_ConfigStrDescriptor>:
  * @param  speed : Current device speed
  * @param  length : Pointer to data length variable
  * @retval Pointer to descriptor buffer
  */
uint8_t * USBD_FS_ConfigStrDescriptor(USBD_SpeedTypeDef speed, uint16_t *length)
{
 8002a68:	b580      	push	{r7, lr}
 8002a6a:	b082      	sub	sp, #8
 8002a6c:	af00      	add	r7, sp, #0
 8002a6e:	4603      	mov	r3, r0
 8002a70:	6039      	str	r1, [r7, #0]
 8002a72:	71fb      	strb	r3, [r7, #7]
  if(speed == USBD_SPEED_HIGH)
 8002a74:	79fb      	ldrb	r3, [r7, #7]
 8002a76:	2b00      	cmp	r3, #0
 8002a78:	d105      	bne.n	8002a86 <USBD_FS_ConfigStrDescriptor+0x1e>
  {
    USBD_GetString((uint8_t *)USBD_CONFIGURATION_STRING_FS, USBD_StrDesc, length);
 8002a7a:	683a      	ldr	r2, [r7, #0]
 8002a7c:	4907      	ldr	r1, [pc, #28]	; (8002a9c <USBD_FS_ConfigStrDescriptor+0x34>)
 8002a7e:	4808      	ldr	r0, [pc, #32]	; (8002aa0 <USBD_FS_ConfigStrDescriptor+0x38>)
 8002a80:	f7ff fb7c 	bl	800217c <USBD_GetString>
 8002a84:	e004      	b.n	8002a90 <USBD_FS_ConfigStrDescriptor+0x28>
  }
  else
  {
    USBD_GetString((uint8_t *)USBD_CONFIGURATION_STRING_FS, USBD_StrDesc, length);
 8002a86:	683a      	ldr	r2, [r7, #0]
 8002a88:	4904      	ldr	r1, [pc, #16]	; (8002a9c <USBD_FS_ConfigStrDescriptor+0x34>)
 8002a8a:	4805      	ldr	r0, [pc, #20]	; (8002aa0 <USBD_FS_ConfigStrDescriptor+0x38>)
 8002a8c:	f7ff fb76 	bl	800217c <USBD_GetString>
  }
  return USBD_StrDesc;
 8002a90:	4b02      	ldr	r3, [pc, #8]	; (8002a9c <USBD_FS_ConfigStrDescriptor+0x34>)
}
 8002a92:	4618      	mov	r0, r3
 8002a94:	3708      	adds	r7, #8
 8002a96:	46bd      	mov	sp, r7
 8002a98:	bd80      	pop	{r7, pc}
 8002a9a:	bf00      	nop
 8002a9c:	20021824 	.word	0x20021824
 8002aa0:	08002d6c 	.word	0x08002d6c

08002aa4 <USBD_FS_InterfaceStrDescriptor>:
  * @param  speed : Current device speed
  * @param  length : Pointer to data length variable
  * @retval Pointer to descriptor buffer
  */
uint8_t * USBD_FS_InterfaceStrDescriptor(USBD_SpeedTypeDef speed, uint16_t *length)
{
 8002aa4:	b580      	push	{r7, lr}
 8002aa6:	b082      	sub	sp, #8
 8002aa8:	af00      	add	r7, sp, #0
 8002aaa:	4603      	mov	r3, r0
 8002aac:	6039      	str	r1, [r7, #0]
 8002aae:	71fb      	strb	r3, [r7, #7]
  if(speed == 0)
 8002ab0:	79fb      	ldrb	r3, [r7, #7]
 8002ab2:	2b00      	cmp	r3, #0
 8002ab4:	d105      	bne.n	8002ac2 <USBD_FS_InterfaceStrDescriptor+0x1e>
  {
    USBD_GetString((uint8_t *)USBD_INTERFACE_STRING_FS, USBD_StrDesc, length);
 8002ab6:	683a      	ldr	r2, [r7, #0]
 8002ab8:	4907      	ldr	r1, [pc, #28]	; (8002ad8 <USBD_FS_InterfaceStrDescriptor+0x34>)
 8002aba:	4808      	ldr	r0, [pc, #32]	; (8002adc <USBD_FS_InterfaceStrDescriptor+0x38>)
 8002abc:	f7ff fb5e 	bl	800217c <USBD_GetString>
 8002ac0:	e004      	b.n	8002acc <USBD_FS_InterfaceStrDescriptor+0x28>
  }
  else
  {
    USBD_GetString((uint8_t *)USBD_INTERFACE_STRING_FS, USBD_StrDesc, length);
 8002ac2:	683a      	ldr	r2, [r7, #0]
 8002ac4:	4904      	ldr	r1, [pc, #16]	; (8002ad8 <USBD_FS_InterfaceStrDescriptor+0x34>)
 8002ac6:	4805      	ldr	r0, [pc, #20]	; (8002adc <USBD_FS_InterfaceStrDescriptor+0x38>)
 8002ac8:	f7ff fb58 	bl	800217c <USBD_GetString>
  }
  return USBD_StrDesc;
 8002acc:	4b02      	ldr	r3, [pc, #8]	; (8002ad8 <USBD_FS_InterfaceStrDescriptor+0x34>)
}
 8002ace:	4618      	mov	r0, r3
 8002ad0:	3708      	adds	r7, #8
 8002ad2:	46bd      	mov	sp, r7
 8002ad4:	bd80      	pop	{r7, pc}
 8002ad6:	bf00      	nop
 8002ad8:	20021824 	.word	0x20021824
 8002adc:	08002d78 	.word	0x08002d78

08002ae0 <USBD_FS_USR_BOSDescriptor>:
  * @param  speed : Current device speed
  * @param  length : Pointer to data length variable
  * @retval Pointer to descriptor buffer
  */
uint8_t * USBD_FS_USR_BOSDescriptor(USBD_SpeedTypeDef speed, uint16_t *length)
{
 8002ae0:	b480      	push	{r7}
 8002ae2:	b083      	sub	sp, #12
 8002ae4:	af00      	add	r7, sp, #0
 8002ae6:	4603      	mov	r3, r0
 8002ae8:	6039      	str	r1, [r7, #0]
 8002aea:	71fb      	strb	r3, [r7, #7]
  *length = sizeof(USBD_FS_BOSDesc);
 8002aec:	683b      	ldr	r3, [r7, #0]
 8002aee:	220c      	movs	r2, #12
 8002af0:	801a      	strh	r2, [r3, #0]
  return (uint8_t*)USBD_FS_BOSDesc;
 8002af2:	4b03      	ldr	r3, [pc, #12]	; (8002b00 <USBD_FS_USR_BOSDescriptor+0x20>)
}
 8002af4:	4618      	mov	r0, r3
 8002af6:	370c      	adds	r7, #12
 8002af8:	46bd      	mov	sp, r7
 8002afa:	f85d 7b04 	ldr.w	r7, [sp], #4
 8002afe:	4770      	bx	lr
 8002b00:	2002015c 	.word	0x2002015c

08002b04 <__libc_init_array>:
 8002b04:	b570      	push	{r4, r5, r6, lr}
 8002b06:	4e0d      	ldr	r6, [pc, #52]	; (8002b3c <__libc_init_array+0x38>)
 8002b08:	4c0d      	ldr	r4, [pc, #52]	; (8002b40 <__libc_init_array+0x3c>)
 8002b0a:	1ba4      	subs	r4, r4, r6
 8002b0c:	10a4      	asrs	r4, r4, #2
 8002b0e:	2500      	movs	r5, #0
 8002b10:	42a5      	cmp	r5, r4
 8002b12:	d109      	bne.n	8002b28 <__libc_init_array+0x24>
 8002b14:	4e0b      	ldr	r6, [pc, #44]	; (8002b44 <__libc_init_array+0x40>)
 8002b16:	4c0c      	ldr	r4, [pc, #48]	; (8002b48 <__libc_init_array+0x44>)
 8002b18:	f000 f8f4 	bl	8002d04 <_init>
 8002b1c:	1ba4      	subs	r4, r4, r6
 8002b1e:	10a4      	asrs	r4, r4, #2
 8002b20:	2500      	movs	r5, #0
 8002b22:	42a5      	cmp	r5, r4
 8002b24:	d105      	bne.n	8002b32 <__libc_init_array+0x2e>
 8002b26:	bd70      	pop	{r4, r5, r6, pc}
 8002b28:	f856 3025 	ldr.w	r3, [r6, r5, lsl #2]
 8002b2c:	4798      	blx	r3
 8002b2e:	3501      	adds	r5, #1
 8002b30:	e7ee      	b.n	8002b10 <__libc_init_array+0xc>
 8002b32:	f856 3025 	ldr.w	r3, [r6, r5, lsl #2]
 8002b36:	4798      	blx	r3
 8002b38:	3501      	adds	r5, #1
 8002b3a:	e7f2      	b.n	8002b22 <__libc_init_array+0x1e>
 8002b3c:	08002d88 	.word	0x08002d88
 8002b40:	08002d88 	.word	0x08002d88
 8002b44:	08002d88 	.word	0x08002d88
 8002b48:	08002d8c 	.word	0x08002d8c

08002b4c <malloc>:
 8002b4c:	4b02      	ldr	r3, [pc, #8]	; (8002b58 <malloc+0xc>)
 8002b4e:	4601      	mov	r1, r0
 8002b50:	6818      	ldr	r0, [r3, #0]
 8002b52:	f000 b859 	b.w	8002c08 <_malloc_r>
 8002b56:	bf00      	nop
 8002b58:	2002016c 	.word	0x2002016c

08002b5c <free>:
 8002b5c:	4b02      	ldr	r3, [pc, #8]	; (8002b68 <free+0xc>)
 8002b5e:	4601      	mov	r1, r0
 8002b60:	6818      	ldr	r0, [r3, #0]
 8002b62:	f000 b803 	b.w	8002b6c <_free_r>
 8002b66:	bf00      	nop
 8002b68:	2002016c 	.word	0x2002016c

08002b6c <_free_r>:
 8002b6c:	b538      	push	{r3, r4, r5, lr}
 8002b6e:	4605      	mov	r5, r0
 8002b70:	2900      	cmp	r1, #0
 8002b72:	d045      	beq.n	8002c00 <_free_r+0x94>
 8002b74:	f851 3c04 	ldr.w	r3, [r1, #-4]
 8002b78:	1f0c      	subs	r4, r1, #4
 8002b7a:	2b00      	cmp	r3, #0
 8002b7c:	bfb8      	it	lt
 8002b7e:	18e4      	addlt	r4, r4, r3
 8002b80:	f000 f8b0 	bl	8002ce4 <__malloc_lock>
 8002b84:	4a1f      	ldr	r2, [pc, #124]	; (8002c04 <_free_r+0x98>)
 8002b86:	6813      	ldr	r3, [r2, #0]
 8002b88:	4610      	mov	r0, r2
 8002b8a:	b933      	cbnz	r3, 8002b9a <_free_r+0x2e>
 8002b8c:	6063      	str	r3, [r4, #4]
 8002b8e:	6014      	str	r4, [r2, #0]
 8002b90:	4628      	mov	r0, r5
 8002b92:	e8bd 4038 	ldmia.w	sp!, {r3, r4, r5, lr}
 8002b96:	f000 b8a6 	b.w	8002ce6 <__malloc_unlock>
 8002b9a:	42a3      	cmp	r3, r4
 8002b9c:	d90c      	bls.n	8002bb8 <_free_r+0x4c>
 8002b9e:	6821      	ldr	r1, [r4, #0]
 8002ba0:	1862      	adds	r2, r4, r1
 8002ba2:	4293      	cmp	r3, r2
 8002ba4:	bf04      	itt	eq
 8002ba6:	681a      	ldreq	r2, [r3, #0]
 8002ba8:	685b      	ldreq	r3, [r3, #4]
 8002baa:	6063      	str	r3, [r4, #4]
 8002bac:	bf04      	itt	eq
 8002bae:	1852      	addeq	r2, r2, r1
 8002bb0:	6022      	streq	r2, [r4, #0]
 8002bb2:	6004      	str	r4, [r0, #0]
 8002bb4:	e7ec      	b.n	8002b90 <_free_r+0x24>
 8002bb6:	4613      	mov	r3, r2
 8002bb8:	685a      	ldr	r2, [r3, #4]
 8002bba:	b10a      	cbz	r2, 8002bc0 <_free_r+0x54>
 8002bbc:	42a2      	cmp	r2, r4
 8002bbe:	d9fa      	bls.n	8002bb6 <_free_r+0x4a>
 8002bc0:	6819      	ldr	r1, [r3, #0]
 8002bc2:	1858      	adds	r0, r3, r1
 8002bc4:	42a0      	cmp	r0, r4
 8002bc6:	d10b      	bne.n	8002be0 <_free_r+0x74>
 8002bc8:	6820      	ldr	r0, [r4, #0]
 8002bca:	4401      	add	r1, r0
 8002bcc:	1858      	adds	r0, r3, r1
 8002bce:	4282      	cmp	r2, r0
 8002bd0:	6019      	str	r1, [r3, #0]
 8002bd2:	d1dd      	bne.n	8002b90 <_free_r+0x24>
 8002bd4:	6810      	ldr	r0, [r2, #0]
 8002bd6:	6852      	ldr	r2, [r2, #4]
 8002bd8:	605a      	str	r2, [r3, #4]
 8002bda:	4401      	add	r1, r0
 8002bdc:	6019      	str	r1, [r3, #0]
 8002bde:	e7d7      	b.n	8002b90 <_free_r+0x24>
 8002be0:	d902      	bls.n	8002be8 <_free_r+0x7c>
 8002be2:	230c      	movs	r3, #12
 8002be4:	602b      	str	r3, [r5, #0]
 8002be6:	e7d3      	b.n	8002b90 <_free_r+0x24>
 8002be8:	6820      	ldr	r0, [r4, #0]
 8002bea:	1821      	adds	r1, r4, r0
 8002bec:	428a      	cmp	r2, r1
 8002bee:	bf04      	itt	eq
 8002bf0:	6811      	ldreq	r1, [r2, #0]
 8002bf2:	6852      	ldreq	r2, [r2, #4]
 8002bf4:	6062      	str	r2, [r4, #4]
 8002bf6:	bf04      	itt	eq
 8002bf8:	1809      	addeq	r1, r1, r0
 8002bfa:	6021      	streq	r1, [r4, #0]
 8002bfc:	605c      	str	r4, [r3, #4]
 8002bfe:	e7c7      	b.n	8002b90 <_free_r+0x24>
 8002c00:	bd38      	pop	{r3, r4, r5, pc}
 8002c02:	bf00      	nop
 8002c04:	200201f0 	.word	0x200201f0

08002c08 <_malloc_r>:
 8002c08:	b570      	push	{r4, r5, r6, lr}
 8002c0a:	1ccd      	adds	r5, r1, #3
 8002c0c:	f025 0503 	bic.w	r5, r5, #3
 8002c10:	3508      	adds	r5, #8
 8002c12:	2d0c      	cmp	r5, #12
 8002c14:	bf38      	it	cc
 8002c16:	250c      	movcc	r5, #12
 8002c18:	2d00      	cmp	r5, #0
 8002c1a:	4606      	mov	r6, r0
 8002c1c:	db01      	blt.n	8002c22 <_malloc_r+0x1a>
 8002c1e:	42a9      	cmp	r1, r5
 8002c20:	d903      	bls.n	8002c2a <_malloc_r+0x22>
 8002c22:	230c      	movs	r3, #12
 8002c24:	6033      	str	r3, [r6, #0]
 8002c26:	2000      	movs	r0, #0
 8002c28:	bd70      	pop	{r4, r5, r6, pc}
 8002c2a:	f000 f85b 	bl	8002ce4 <__malloc_lock>
 8002c2e:	4a23      	ldr	r2, [pc, #140]	; (8002cbc <_malloc_r+0xb4>)
 8002c30:	6814      	ldr	r4, [r2, #0]
 8002c32:	4621      	mov	r1, r4
 8002c34:	b991      	cbnz	r1, 8002c5c <_malloc_r+0x54>
 8002c36:	4c22      	ldr	r4, [pc, #136]	; (8002cc0 <_malloc_r+0xb8>)
 8002c38:	6823      	ldr	r3, [r4, #0]
 8002c3a:	b91b      	cbnz	r3, 8002c44 <_malloc_r+0x3c>
 8002c3c:	4630      	mov	r0, r6
 8002c3e:	f000 f841 	bl	8002cc4 <_sbrk_r>
 8002c42:	6020      	str	r0, [r4, #0]
 8002c44:	4629      	mov	r1, r5
 8002c46:	4630      	mov	r0, r6
 8002c48:	f000 f83c 	bl	8002cc4 <_sbrk_r>
 8002c4c:	1c43      	adds	r3, r0, #1
 8002c4e:	d126      	bne.n	8002c9e <_malloc_r+0x96>
 8002c50:	230c      	movs	r3, #12
 8002c52:	6033      	str	r3, [r6, #0]
 8002c54:	4630      	mov	r0, r6
 8002c56:	f000 f846 	bl	8002ce6 <__malloc_unlock>
 8002c5a:	e7e4      	b.n	8002c26 <_malloc_r+0x1e>
 8002c5c:	680b      	ldr	r3, [r1, #0]
 8002c5e:	1b5b      	subs	r3, r3, r5
 8002c60:	d41a      	bmi.n	8002c98 <_malloc_r+0x90>
 8002c62:	2b0b      	cmp	r3, #11
 8002c64:	d90f      	bls.n	8002c86 <_malloc_r+0x7e>
 8002c66:	600b      	str	r3, [r1, #0]
 8002c68:	50cd      	str	r5, [r1, r3]
 8002c6a:	18cc      	adds	r4, r1, r3
 8002c6c:	4630      	mov	r0, r6
 8002c6e:	f000 f83a 	bl	8002ce6 <__malloc_unlock>
 8002c72:	f104 000b 	add.w	r0, r4, #11
 8002c76:	1d23      	adds	r3, r4, #4
 8002c78:	f020 0007 	bic.w	r0, r0, #7
 8002c7c:	1ac3      	subs	r3, r0, r3
 8002c7e:	d01b      	beq.n	8002cb8 <_malloc_r+0xb0>
 8002c80:	425a      	negs	r2, r3
 8002c82:	50e2      	str	r2, [r4, r3]
 8002c84:	bd70      	pop	{r4, r5, r6, pc}
 8002c86:	428c      	cmp	r4, r1
 8002c88:	bf0d      	iteet	eq
 8002c8a:	6863      	ldreq	r3, [r4, #4]
 8002c8c:	684b      	ldrne	r3, [r1, #4]
 8002c8e:	6063      	strne	r3, [r4, #4]
 8002c90:	6013      	streq	r3, [r2, #0]
 8002c92:	bf18      	it	ne
 8002c94:	460c      	movne	r4, r1
 8002c96:	e7e9      	b.n	8002c6c <_malloc_r+0x64>
 8002c98:	460c      	mov	r4, r1
 8002c9a:	6849      	ldr	r1, [r1, #4]
 8002c9c:	e7ca      	b.n	8002c34 <_malloc_r+0x2c>
 8002c9e:	1cc4      	adds	r4, r0, #3
 8002ca0:	f024 0403 	bic.w	r4, r4, #3
 8002ca4:	42a0      	cmp	r0, r4
 8002ca6:	d005      	beq.n	8002cb4 <_malloc_r+0xac>
 8002ca8:	1a21      	subs	r1, r4, r0
 8002caa:	4630      	mov	r0, r6
 8002cac:	f000 f80a 	bl	8002cc4 <_sbrk_r>
 8002cb0:	3001      	adds	r0, #1
 8002cb2:	d0cd      	beq.n	8002c50 <_malloc_r+0x48>
 8002cb4:	6025      	str	r5, [r4, #0]
 8002cb6:	e7d9      	b.n	8002c6c <_malloc_r+0x64>
 8002cb8:	bd70      	pop	{r4, r5, r6, pc}
 8002cba:	bf00      	nop
 8002cbc:	200201f0 	.word	0x200201f0
 8002cc0:	200201f4 	.word	0x200201f4

08002cc4 <_sbrk_r>:
 8002cc4:	b538      	push	{r3, r4, r5, lr}
 8002cc6:	4c06      	ldr	r4, [pc, #24]	; (8002ce0 <_sbrk_r+0x1c>)
 8002cc8:	2300      	movs	r3, #0
 8002cca:	4605      	mov	r5, r0
 8002ccc:	4608      	mov	r0, r1
 8002cce:	6023      	str	r3, [r4, #0]
 8002cd0:	f000 f80a 	bl	8002ce8 <_sbrk>
 8002cd4:	1c43      	adds	r3, r0, #1
 8002cd6:	d102      	bne.n	8002cde <_sbrk_r+0x1a>
 8002cd8:	6823      	ldr	r3, [r4, #0]
 8002cda:	b103      	cbz	r3, 8002cde <_sbrk_r+0x1a>
 8002cdc:	602b      	str	r3, [r5, #0]
 8002cde:	bd38      	pop	{r3, r4, r5, pc}
 8002ce0:	20021a24 	.word	0x20021a24

08002ce4 <__malloc_lock>:
 8002ce4:	4770      	bx	lr

08002ce6 <__malloc_unlock>:
 8002ce6:	4770      	bx	lr

08002ce8 <_sbrk>:
 8002ce8:	4b04      	ldr	r3, [pc, #16]	; (8002cfc <_sbrk+0x14>)
 8002cea:	6819      	ldr	r1, [r3, #0]
 8002cec:	4602      	mov	r2, r0
 8002cee:	b909      	cbnz	r1, 8002cf4 <_sbrk+0xc>
 8002cf0:	4903      	ldr	r1, [pc, #12]	; (8002d00 <_sbrk+0x18>)
 8002cf2:	6019      	str	r1, [r3, #0]
 8002cf4:	6818      	ldr	r0, [r3, #0]
 8002cf6:	4402      	add	r2, r0
 8002cf8:	601a      	str	r2, [r3, #0]
 8002cfa:	4770      	bx	lr
 8002cfc:	200201f8 	.word	0x200201f8
 8002d00:	20021a28 	.word	0x20021a28

08002d04 <_init>:
 8002d04:	b5f8      	push	{r3, r4, r5, r6, r7, lr}
 8002d06:	bf00      	nop
 8002d08:	bcf8      	pop	{r3, r4, r5, r6, r7}
 8002d0a:	bc08      	pop	{r3}
 8002d0c:	469e      	mov	lr, r3
 8002d0e:	4770      	bx	lr

08002d10 <_fini>:
 8002d10:	b5f8      	push	{r3, r4, r5, r6, r7, lr}
 8002d12:	bf00      	nop
 8002d14:	bcf8      	pop	{r3, r4, r5, r6, r7}
 8002d16:	bc08      	pop	{r3}
 8002d18:	469e      	mov	lr, r3
 8002d1a:	4770      	bx	lr
